
icx/headless:     file format elf64-x86-64


Disassembly of section .init:

0000000000401000 <_init>:
  401000:	48 83 ec 08          	sub    rsp,0x8
  401004:	48 8b 05 bd ff 00 00 	mov    rax,QWORD PTR [rip+0xffbd]        # 410fc8 <__gmon_start__@Base>
  40100b:	48 85 c0             	test   rax,rax
  40100e:	74 02                	je     401012 <_init+0x12>
  401010:	ff d0                	call   rax
  401012:	48 83 c4 08          	add    rsp,0x8
  401016:	c3                   	ret

Disassembly of section .plt:

0000000000401020 <getenv@plt-0x10>:
  401020:	ff 35 ca ff 00 00    	push   QWORD PTR [rip+0xffca]        # 410ff0 <_GLOBAL_OFFSET_TABLE_+0x8>
  401026:	ff 25 cc ff 00 00    	jmp    QWORD PTR [rip+0xffcc]        # 410ff8 <_GLOBAL_OFFSET_TABLE_+0x10>
  40102c:	0f 1f 40 00          	nop    DWORD PTR [rax+0x0]

0000000000401030 <getenv@plt>:
  401030:	ff 25 ca ff 00 00    	jmp    QWORD PTR [rip+0xffca]        # 411000 <getenv@GLIBC_2.2.5>
  401036:	68 00 00 00 00       	push   0x0
  40103b:	e9 e0 ff ff ff       	jmp    401020 <_init+0x20>

0000000000401040 <free@plt>:
  401040:	ff 25 c2 ff 00 00    	jmp    QWORD PTR [rip+0xffc2]        # 411008 <free@GLIBC_2.2.5>
  401046:	68 01 00 00 00       	push   0x1
  40104b:	e9 d0 ff ff ff       	jmp    401020 <_init+0x20>

0000000000401050 <__errno_location@plt>:
  401050:	ff 25 ba ff 00 00    	jmp    QWORD PTR [rip+0xffba]        # 411010 <__errno_location@GLIBC_2.2.5>
  401056:	68 02 00 00 00       	push   0x2
  40105b:	e9 c0 ff ff ff       	jmp    401020 <_init+0x20>

0000000000401060 <puts@plt>:
  401060:	ff 25 b2 ff 00 00    	jmp    QWORD PTR [rip+0xffb2]        # 411018 <puts@GLIBC_2.2.5>
  401066:	68 03 00 00 00       	push   0x3
  40106b:	e9 b0 ff ff ff       	jmp    401020 <_init+0x20>

0000000000401070 <strtod@plt>:
  401070:	ff 25 aa ff 00 00    	jmp    QWORD PTR [rip+0xffaa]        # 411020 <strtod@GLIBC_2.2.5>
  401076:	68 04 00 00 00       	push   0x4
  40107b:	e9 a0 ff ff ff       	jmp    401020 <_init+0x20>

0000000000401080 <clock_gettime@plt>:
  401080:	ff 25 a2 ff 00 00    	jmp    QWORD PTR [rip+0xffa2]        # 411028 <clock_gettime@GLIBC_2.17>
  401086:	68 05 00 00 00       	push   0x5
  40108b:	e9 90 ff ff ff       	jmp    401020 <_init+0x20>

0000000000401090 <setenv@plt>:
  401090:	ff 25 9a ff 00 00    	jmp    QWORD PTR [rip+0xff9a]        # 411030 <setenv@GLIBC_2.2.5>
  401096:	68 06 00 00 00       	push   0x6
  40109b:	e9 80 ff ff ff       	jmp    401020 <_init+0x20>

00000000004010a0 <__stack_chk_fail@plt>:
  4010a0:	ff 25 92 ff 00 00    	jmp    QWORD PTR [rip+0xff92]        # 411038 <__stack_chk_fail@GLIBC_2.4>
  4010a6:	68 07 00 00 00       	push   0x7
  4010ab:	e9 70 ff ff ff       	jmp    401020 <_init+0x20>

00000000004010b0 <strchr@plt>:
  4010b0:	ff 25 8a ff 00 00    	jmp    QWORD PTR [rip+0xff8a]        # 411040 <strchr@GLIBC_2.2.5>
  4010b6:	68 08 00 00 00       	push   0x8
  4010bb:	e9 60 ff ff ff       	jmp    401020 <_init+0x20>

00000000004010c0 <printf@plt>:
  4010c0:	ff 25 82 ff 00 00    	jmp    QWORD PTR [rip+0xff82]        # 411048 <printf@GLIBC_2.2.5>
  4010c6:	68 09 00 00 00       	push   0x9
  4010cb:	e9 50 ff ff ff       	jmp    401020 <_init+0x20>

00000000004010d0 <fprintf@plt>:
  4010d0:	ff 25 7a ff 00 00    	jmp    QWORD PTR [rip+0xff7a]        # 411050 <fprintf@GLIBC_2.2.5>
  4010d6:	68 0a 00 00 00       	push   0xa
  4010db:	e9 40 ff ff ff       	jmp    401020 <_init+0x20>

00000000004010e0 <strtol@plt>:
  4010e0:	ff 25 72 ff 00 00    	jmp    QWORD PTR [rip+0xff72]        # 411058 <strtol@GLIBC_2.2.5>
  4010e6:	68 0b 00 00 00       	push   0xb
  4010eb:	e9 30 ff ff ff       	jmp    401020 <_init+0x20>

00000000004010f0 <malloc@plt>:
  4010f0:	ff 25 6a ff 00 00    	jmp    QWORD PTR [rip+0xff6a]        # 411060 <malloc@GLIBC_2.2.5>
  4010f6:	68 0c 00 00 00       	push   0xc
  4010fb:	e9 20 ff ff ff       	jmp    401020 <_init+0x20>

0000000000401100 <catopen@plt>:
  401100:	ff 25 62 ff 00 00    	jmp    QWORD PTR [rip+0xff62]        # 411068 <catopen@GLIBC_2.2.5>
  401106:	68 0d 00 00 00       	push   0xd
  40110b:	e9 10 ff ff ff       	jmp    401020 <_init+0x20>

0000000000401110 <__vsnprintf_chk@plt>:
  401110:	ff 25 5a ff 00 00    	jmp    QWORD PTR [rip+0xff5a]        # 411070 <__vsnprintf_chk@GLIBC_2.3.4>
  401116:	68 0e 00 00 00       	push   0xe
  40111b:	e9 00 ff ff ff       	jmp    401020 <_init+0x20>

0000000000401120 <__strncpy_chk@plt>:
  401120:	ff 25 52 ff 00 00    	jmp    QWORD PTR [rip+0xff52]        # 411078 <__strncpy_chk@GLIBC_2.3.4>
  401126:	68 0f 00 00 00       	push   0xf
  40112b:	e9 f0 fe ff ff       	jmp    401020 <_init+0x20>

0000000000401130 <__printf_chk@plt>:
  401130:	ff 25 4a ff 00 00    	jmp    QWORD PTR [rip+0xff4a]        # 411080 <__printf_chk@GLIBC_2.3.4>
  401136:	68 10 00 00 00       	push   0x10
  40113b:	e9 e0 fe ff ff       	jmp    401020 <_init+0x20>

0000000000401140 <catgets@plt>:
  401140:	ff 25 42 ff 00 00    	jmp    QWORD PTR [rip+0xff42]        # 411088 <catgets@GLIBC_2.2.5>
  401146:	68 11 00 00 00       	push   0x11
  40114b:	e9 d0 fe ff ff       	jmp    401020 <_init+0x20>

0000000000401150 <exit@plt>:
  401150:	ff 25 3a ff 00 00    	jmp    QWORD PTR [rip+0xff3a]        # 411090 <exit@GLIBC_2.2.5>
  401156:	68 12 00 00 00       	push   0x12
  40115b:	e9 c0 fe ff ff       	jmp    401020 <_init+0x20>

0000000000401160 <fwrite@plt>:
  401160:	ff 25 32 ff 00 00    	jmp    QWORD PTR [rip+0xff32]        # 411098 <fwrite@GLIBC_2.2.5>
  401166:	68 13 00 00 00       	push   0x13
  40116b:	e9 b0 fe ff ff       	jmp    401020 <_init+0x20>

0000000000401170 <__fprintf_chk@plt>:
  401170:	ff 25 2a ff 00 00    	jmp    QWORD PTR [rip+0xff2a]        # 4110a0 <__fprintf_chk@GLIBC_2.3.4>
  401176:	68 14 00 00 00       	push   0x14
  40117b:	e9 a0 fe ff ff       	jmp    401020 <_init+0x20>

Disassembly of section .plt.got:

0000000000401180 <__cxa_finalize@plt>:
  401180:	ff 25 52 fe 00 00    	jmp    QWORD PTR [rip+0xfe52]        # 410fd8 <__cxa_finalize@GLIBC_2.2.5>
  401186:	66 90                	xchg   ax,ax

Disassembly of section .text:

00000000004011c0 <set_fast_math>:
  4011c0:	f3 0f 1e fa          	endbr64
  4011c4:	0f ae 5c 24 fc       	stmxcsr DWORD PTR [rsp-0x4]
  4011c9:	81 4c 24 fc 40 80 00 00 	or     DWORD PTR [rsp-0x4],0x8040
  4011d1:	0f ae 54 24 fc       	ldmxcsr DWORD PTR [rsp-0x4]
  4011d6:	c3                   	ret
  4011d7:	66 0f 1f 84 00 00 00 00 00 	nop    WORD PTR [rax+rax*1+0x0]

00000000004011e0 <_GLOBAL__sub_I_fast_mem_ops.c>:
  4011e0:	f3 0f 1e fa          	endbr64
  4011e4:	55                   	push   rbp
  4011e5:	48 89 e5             	mov    rbp,rsp
  4011e8:	41 56                	push   r14
  4011ea:	53                   	push   rbx
  4011eb:	48 83 ec 20          	sub    rsp,0x20
  4011ef:	83 3d 86 06 01 00 00 	cmp    DWORD PTR [rip+0x10686],0x0        # 41187c <__libirc_cache_tbl+0xc>
  4011f6:	74 47                	je     40123f <_GLOBAL__sub_I_fast_mem_ops.c+0x5f>
  4011f8:	83 3d 71 06 01 00 00 	cmp    DWORD PTR [rip+0x10671],0x0        # 411870 <__libirc_cache_tbl>
  4011ff:	74 4c                	je     40124d <_GLOBAL__sub_I_fast_mem_ops.c+0x6d>
  401201:	83 3d 6c 06 01 00 00 	cmp    DWORD PTR [rip+0x1066c],0x0        # 411874 <__libirc_cache_tbl+0x4>
  401208:	0f 84 66 01 00 00    	je     401374 <_GLOBAL__sub_I_fast_mem_ops.c+0x194>
  40120e:	53                   	push   rbx
  40120f:	b8 01 00 00 00       	mov    eax,0x1
  401214:	0f a2                	cpuid
  401216:	89 5d d0             	mov    DWORD PTR [rbp-0x30],ebx
  401219:	89 55 e0             	mov    DWORD PTR [rbp-0x20],edx
  40121c:	89 45 ec             	mov    DWORD PTR [rbp-0x14],eax
  40121f:	5b                   	pop    rbx
  401220:	8b 45 e0             	mov    eax,DWORD PTR [rbp-0x20]
  401223:	89 c1                	mov    ecx,eax
  401225:	c1 e9 17             	shr    ecx,0x17
  401228:	83 e1 01             	and    ecx,0x1
  40122b:	a9 00 00 00 04       	test   eax,0x4000000
  401230:	41 be 02 00 00 00    	mov    r14d,0x2
  401236:	44 0f 44 f1          	cmove  r14d,ecx
  40123a:	e9 38 01 00 00       	jmp    401377 <_GLOBAL__sub_I_fast_mem_ops.c+0x197>
  40123f:	e8 3c af 00 00       	call   40c180 <__libirc_init_cache_tbl()>
  401244:	83 3d 25 06 01 00 00 	cmp    DWORD PTR [rip+0x10625],0x0        # 411870 <__libirc_cache_tbl>
  40124b:	75 b4                	jne    401201 <_GLOBAL__sub_I_fast_mem_ops.c+0x21>
  40124d:	c7 45 ec 00 00 00 00 	mov    DWORD PTR [rbp-0x14],0x0
  401254:	48 8d 75 d0          	lea    rsi,[rbp-0x30]
  401258:	48 89 75 e0          	mov    QWORD PTR [rbp-0x20],rsi
  40125c:	50                   	push   rax
  40125d:	53                   	push   rbx
  40125e:	51                   	push   rcx
  40125f:	52                   	push   rdx
  401260:	4c 8b 45 e0          	mov    r8,QWORD PTR [rbp-0x20]
  401264:	8b 45 ec             	mov    eax,DWORD PTR [rbp-0x14]
  401267:	0f a2                	cpuid
  401269:	41 89 00             	mov    DWORD PTR [r8],eax
  40126c:	41 89 58 04          	mov    DWORD PTR [r8+0x4],ebx
  401270:	41 89 48 08          	mov    DWORD PTR [r8+0x8],ecx
  401274:	41 89 50 0c          	mov    DWORD PTR [r8+0xc],edx
  401278:	5a                   	pop    rdx
  401279:	59                   	pop    rcx
  40127a:	5b                   	pop    rbx
  40127b:	58                   	pop    rax
  40127c:	45 31 f6             	xor    r14d,r14d
  40127f:	81 7d d4 41 75 74 68 	cmp    DWORD PTR [rbp-0x2c],0x68747541
  401286:	0f 85 bd 01 00 00    	jne    401449 <_GLOBAL__sub_I_fast_mem_ops.c+0x269>
  40128c:	81 7d dc 65 6e 74 69 	cmp    DWORD PTR [rbp-0x24],0x69746e65
  401293:	0f 85 b0 01 00 00    	jne    401449 <_GLOBAL__sub_I_fast_mem_ops.c+0x269>
  401299:	81 7d d8 63 41 4d 44 	cmp    DWORD PTR [rbp-0x28],0x444d4163
  4012a0:	0f 85 a3 01 00 00    	jne    401449 <_GLOBAL__sub_I_fast_mem_ops.c+0x269>
  4012a6:	c7 45 ec 01 00 00 00 	mov    DWORD PTR [rbp-0x14],0x1
  4012ad:	48 89 75 e0          	mov    QWORD PTR [rbp-0x20],rsi
  4012b1:	50                   	push   rax
  4012b2:	53                   	push   rbx
  4012b3:	51                   	push   rcx
  4012b4:	52                   	push   rdx
  4012b5:	4c 8b 45 e0          	mov    r8,QWORD PTR [rbp-0x20]
  4012b9:	8b 45 ec             	mov    eax,DWORD PTR [rbp-0x14]
  4012bc:	0f a2                	cpuid
  4012be:	41 89 00             	mov    DWORD PTR [r8],eax
  4012c1:	41 89 58 04          	mov    DWORD PTR [r8+0x4],ebx
  4012c5:	41 89 48 08          	mov    DWORD PTR [r8+0x8],ecx
  4012c9:	41 89 50 0c          	mov    DWORD PTR [r8+0xc],edx
  4012cd:	5a                   	pop    rdx
  4012ce:	59                   	pop    rcx
  4012cf:	5b                   	pop    rbx
  4012d0:	58                   	pop    rax
  4012d1:	44 8b 75 dc          	mov    r14d,DWORD PTR [rbp-0x24]
  4012d5:	41 c1 ee 17          	shr    r14d,0x17
  4012d9:	41 83 e6 01          	and    r14d,0x1
  4012dd:	c7 45 ec 00 00 00 80 	mov    DWORD PTR [rbp-0x14],0x80000000
  4012e4:	48 89 75 e0          	mov    QWORD PTR [rbp-0x20],rsi
  4012e8:	50                   	push   rax
  4012e9:	53                   	push   rbx
  4012ea:	51                   	push   rcx
  4012eb:	52                   	push   rdx
  4012ec:	4c 8b 45 e0          	mov    r8,QWORD PTR [rbp-0x20]
  4012f0:	8b 45 ec             	mov    eax,DWORD PTR [rbp-0x14]
  4012f3:	0f a2                	cpuid
  4012f5:	41 89 00             	mov    DWORD PTR [r8],eax
  4012f8:	41 89 58 04          	mov    DWORD PTR [r8+0x4],ebx
  4012fc:	41 89 48 08          	mov    DWORD PTR [r8+0x8],ecx
  401300:	41 89 50 0c          	mov    DWORD PTR [r8+0xc],edx
  401304:	5a                   	pop    rdx
  401305:	59                   	pop    rcx
  401306:	5b                   	pop    rbx
  401307:	58                   	pop    rax
  401308:	81 7d d0 06 00 00 80 	cmp    DWORD PTR [rbp-0x30],0x80000006
  40130f:	0f 82 34 01 00 00    	jb     401449 <_GLOBAL__sub_I_fast_mem_ops.c+0x269>
  401315:	c7 45 ec 06 00 00 80 	mov    DWORD PTR [rbp-0x14],0x80000006
  40131c:	48 89 75 e0          	mov    QWORD PTR [rbp-0x20],rsi
  401320:	50                   	push   rax
  401321:	53                   	push   rbx
  401322:	51                   	push   rcx
  401323:	52                   	push   rdx
  401324:	4c 8b 45 e0          	mov    r8,QWORD PTR [rbp-0x20]
  401328:	8b 45 ec             	mov    eax,DWORD PTR [rbp-0x14]
  40132b:	0f a2                	cpuid
  40132d:	41 89 00             	mov    DWORD PTR [r8],eax
  401330:	41 89 58 04          	mov    DWORD PTR [r8+0x4],ebx
  401334:	41 89 48 08          	mov    DWORD PTR [r8+0x8],ecx
  401338:	41 89 50 0c          	mov    DWORD PTR [r8+0xc],edx
  40133c:	5a                   	pop    rdx
  40133d:	59                   	pop    rcx
  40133e:	5b                   	pop    rbx
  40133f:	58                   	pop    rax
  401340:	8b 45 d8             	mov    eax,DWORD PTR [rbp-0x28]
  401343:	48 c1 e8 06          	shr    rax,0x6
  401347:	25 00 fc ff 03       	and    eax,0x3fffc00
  40134c:	48 89 05 6d fd 00 00 	mov    QWORD PTR [rip+0xfd6d],rax        # 4110c0 <__libirc_largest_cache_size>
  401353:	48 d1 e8             	shr    rax,1
  401356:	48 89 05 6b fd 00 00 	mov    QWORD PTR [rip+0xfd6b],rax        # 4110c8 <__libirc_largest_cache_size_half>
  40135d:	48 8b 05 6c fd 00 00 	mov    rax,QWORD PTR [rip+0xfd6c]        # 4110d0 <__libirc_data_cache_size>
  401364:	48 c1 e8 02          	shr    rax,0x2
  401368:	48 89 05 71 fd 00 00 	mov    QWORD PTR [rip+0xfd71],rax        # 4110e0 <__libirc_largest_cache_size_quoter>
  40136f:	e9 d5 00 00 00       	jmp    401449 <_GLOBAL__sub_I_fast_mem_ops.c+0x269>
  401374:	45 31 f6             	xor    r14d,r14d
  401377:	8b 05 03 05 01 00    	mov    eax,DWORD PTR [rip+0x10503]        # 411880 <__libirc_cache_tbl+0x10>
  40137d:	85 c0                	test   eax,eax
  40137f:	0f 84 ae 00 00 00    	je     401433 <_GLOBAL__sub_I_fast_mem_ops.c+0x253>
  401385:	8b 0d 0d 05 01 00    	mov    ecx,DWORD PTR [rip+0x1050d]        # 411898 <__libirc_cache_tbl+0x28>
  40138b:	0f af 0d 02 05 01 00 	imul   ecx,DWORD PTR [rip+0x10502]        # 411894 <__libirc_cache_tbl+0x24>
  401392:	8b 15 f8 04 01 00    	mov    edx,DWORD PTR [rip+0x104f8]        # 411890 <__libirc_cache_tbl+0x20>
  401398:	8b 35 ea 04 01 00    	mov    esi,DWORD PTR [rip+0x104ea]        # 411888 <__libirc_cache_tbl+0x18>
  40139e:	0f af 35 df 04 01 00 	imul   esi,DWORD PTR [rip+0x104df]        # 411884 <__libirc_cache_tbl+0x14>
  4013a5:	39 d0                	cmp    eax,edx
  4013a7:	0f 47 d0             	cmova  edx,eax
  4013aa:	0f 42 f1             	cmovb  esi,ecx
  4013ad:	8b 0d f5 04 01 00    	mov    ecx,DWORD PTR [rip+0x104f5]        # 4118a8 <__libirc_cache_tbl+0x38>
  4013b3:	0f af 0d ea 04 01 00 	imul   ecx,DWORD PTR [rip+0x104ea]        # 4118a4 <__libirc_cache_tbl+0x34>
  4013ba:	8b 3d e0 04 01 00    	mov    edi,DWORD PTR [rip+0x104e0]        # 4118a0 <__libirc_cache_tbl+0x30>
  4013c0:	39 fa                	cmp    edx,edi
  4013c2:	0f 43 ce             	cmovae ecx,esi
  4013c5:	0f 46 d7             	cmovbe edx,edi
  4013c8:	48 89 d6             	mov    rsi,rdx
  4013cb:	48 c1 e6 0a          	shl    rsi,0xa
  4013cf:	48 89 35 ea fc 00 00 	mov    QWORD PTR [rip+0xfcea],rsi        # 4110c0 <__libirc_largest_cache_size>
  4013d6:	48 c1 e2 09          	shl    rdx,0x9
  4013da:	48 89 15 e7 fc 00 00 	mov    QWORD PTR [rip+0xfce7],rdx        # 4110c8 <__libirc_largest_cache_size_half>
  4013e1:	c1 e0 0a             	shl    eax,0xa
  4013e4:	48 89 05 e5 fc 00 00 	mov    QWORD PTR [rip+0xfce5],rax        # 4110d0 <__libirc_data_cache_size>
  4013eb:	48 89 c2             	mov    rdx,rax
  4013ee:	48 d1 ea             	shr    rdx,1
  4013f1:	48 89 15 e0 fc 00 00 	mov    QWORD PTR [rip+0xfce0],rdx        # 4110d8 <__libirc_data_cache_size_half>
  4013f8:	48 89 c2             	mov    rdx,rax
  4013fb:	48 c1 ea 02          	shr    rdx,0x2
  4013ff:	48 89 15 da fc 00 00 	mov    QWORD PTR [rip+0xfcda],rdx        # 4110e0 <__libirc_largest_cache_size_quoter>
  401406:	48 89 0d ab 04 01 00 	mov    QWORD PTR [rip+0x104ab],rcx        # 4118b8 <__libirc_largest_cachelinesize>
  40140d:	48 c7 05 d0 fc 00 00 00 20 00 00 	mov    QWORD PTR [rip+0xfcd0],0x2000        # 4110e8 <__libirc_copy_loop_threshold>
  401418:	48 01 c0             	add    rax,rax
  40141b:	48 8d 04 40          	lea    rax,[rax+rax*2]
  40141f:	48 89 05 ca fc 00 00 	mov    QWORD PTR [rip+0xfcca],rax        # 4110f0 <__libirc_rep_move_threshold>
  401426:	48 c7 05 c7 fc 00 00 00 08 00 00 	mov    QWORD PTR [rip+0xfcc7],0x800        # 4110f8 <__libirc_set_loop_threshold>
  401431:	eb 16                	jmp    401449 <_GLOBAL__sub_I_fast_mem_ops.c+0x269>
  401433:	48 8d 3d f6 c9 00 00 	lea    rdi,[rip+0xc9f6]        # 40de30 <cpuid2_cache_tbl+0x800>
  40143a:	e8 f1 fb ff ff       	call   401030 <getenv@plt>
  40143f:	48 85 c0             	test   rax,rax
  401442:	74 05                	je     401449 <_GLOBAL__sub_I_fast_mem_ops.c+0x269>
  401444:	80 38 00             	cmp    BYTE PTR [rax],0x0
  401447:	75 17                	jne    401460 <_GLOBAL__sub_I_fast_mem_ops.c+0x280>
  401449:	44 89 35 60 04 01 00 	mov    DWORD PTR [rip+0x10460],r14d        # 4118b0 <__libirc_mem_ops_method>
  401450:	44 89 35 69 04 01 00 	mov    DWORD PTR [rip+0x10469],r14d        # 4118c0 <__libirc_tmp>
  401457:	48 83 c4 20          	add    rsp,0x20
  40145b:	5b                   	pop    rbx
  40145c:	41 5e                	pop    r14
  40145e:	5d                   	pop    rbp
  40145f:	c3                   	ret
  401460:	bf 01 00 00 00       	mov    edi,0x1
  401465:	31 f6                	xor    esi,esi
  401467:	31 d2                	xor    edx,edx
  401469:	31 c0                	xor    eax,eax
  40146b:	e8 80 b3 00 00       	call   40c7f0 <__libirc_print>
  401470:	bf 01 00 00 00       	mov    edi,0x1
  401475:	be 3d 00 00 00       	mov    esi,0x3d
  40147a:	31 d2                	xor    edx,edx
  40147c:	31 c0                	xor    eax,eax
  40147e:	e8 6d b3 00 00       	call   40c7f0 <__libirc_print>
  401483:	bf 01 00 00 00       	mov    edi,0x1
  401488:	31 f6                	xor    esi,esi
  40148a:	31 d2                	xor    edx,edx
  40148c:	31 c0                	xor    eax,eax
  40148e:	e8 5d b3 00 00       	call   40c7f0 <__libirc_print>
  401493:	bf 01 00 00 00       	mov    edi,0x1
  401498:	e8 b3 fc ff ff       	call   401150 <exit@plt>
  40149d:	0f 1f 00             	nop    DWORD PTR [rax]

00000000004014a0 <_start>:
  4014a0:	31 ed                	xor    ebp,ebp
  4014a2:	49 89 d1             	mov    r9,rdx
  4014a5:	5e                   	pop    rsi
  4014a6:	48 89 e2             	mov    rdx,rsp
  4014a9:	48 83 e4 f0          	and    rsp,0xfffffffffffffff0
  4014ad:	50                   	push   rax
  4014ae:	54                   	push   rsp
  4014af:	45 31 c0             	xor    r8d,r8d
  4014b2:	31 c9                	xor    ecx,ecx
  4014b4:	48 c7 c7 90 15 40 00 	mov    rdi,0x401590
  4014bb:	ff 15 ef fa 00 00    	call   QWORD PTR [rip+0xfaef]        # 410fb0 <__libc_start_main@GLIBC_2.34>
  4014c1:	f4                   	hlt
  4014c2:	66 2e 0f 1f 84 00 00 00 00 00 	cs nop WORD PTR [rax+rax*1+0x0]
  4014cc:	0f 1f 40 00          	nop    DWORD PTR [rax+0x0]

00000000004014d0 <deregister_tm_clones>:
  4014d0:	48 8d 3d 29 fc 00 00 	lea    rdi,[rip+0xfc29]        # 411100 <stderr@GLIBC_2.2.5>
  4014d7:	48 8d 05 22 fc 00 00 	lea    rax,[rip+0xfc22]        # 411100 <stderr@GLIBC_2.2.5>
  4014de:	48 39 f8             	cmp    rax,rdi
  4014e1:	74 15                	je     4014f8 <deregister_tm_clones+0x28>
  4014e3:	48 8b 05 ce fa 00 00 	mov    rax,QWORD PTR [rip+0xface]        # 410fb8 <_ITM_deregisterTMCloneTable@Base>
  4014ea:	48 85 c0             	test   rax,rax
  4014ed:	74 09                	je     4014f8 <deregister_tm_clones+0x28>
  4014ef:	ff e0                	jmp    rax
  4014f1:	0f 1f 80 00 00 00 00 	nop    DWORD PTR [rax+0x0]
  4014f8:	c3                   	ret
  4014f9:	0f 1f 80 00 00 00 00 	nop    DWORD PTR [rax+0x0]

0000000000401500 <register_tm_clones>:
  401500:	48 8d 3d f9 fb 00 00 	lea    rdi,[rip+0xfbf9]        # 411100 <stderr@GLIBC_2.2.5>
  401507:	48 8d 35 f2 fb 00 00 	lea    rsi,[rip+0xfbf2]        # 411100 <stderr@GLIBC_2.2.5>
  40150e:	48 29 fe             	sub    rsi,rdi
  401511:	48 89 f0             	mov    rax,rsi
  401514:	48 c1 ee 3f          	shr    rsi,0x3f
  401518:	48 c1 f8 03          	sar    rax,0x3
  40151c:	48 01 c6             	add    rsi,rax
  40151f:	48 d1 fe             	sar    rsi,1
  401522:	74 14                	je     401538 <register_tm_clones+0x38>
  401524:	48 8b 05 a5 fa 00 00 	mov    rax,QWORD PTR [rip+0xfaa5]        # 410fd0 <_ITM_registerTMCloneTable@Base>
  40152b:	48 85 c0             	test   rax,rax
  40152e:	74 08                	je     401538 <register_tm_clones+0x38>
  401530:	ff e0                	jmp    rax
  401532:	66 0f 1f 44 00 00    	nop    WORD PTR [rax+rax*1+0x0]
  401538:	c3                   	ret
  401539:	0f 1f 80 00 00 00 00 	nop    DWORD PTR [rax+0x0]

0000000000401540 <__do_global_dtors_aux>:
  401540:	f3 0f 1e fa          	endbr64
  401544:	80 3d bd fb 00 00 00 	cmp    BYTE PTR [rip+0xfbbd],0x0        # 411108 <completed.0>
  40154b:	75 2b                	jne    401578 <__do_global_dtors_aux+0x38>
  40154d:	55                   	push   rbp
  40154e:	48 83 3d 82 fa 00 00 00 	cmp    QWORD PTR [rip+0xfa82],0x0        # 410fd8 <__cxa_finalize@GLIBC_2.2.5>
  401556:	48 89 e5             	mov    rbp,rsp
  401559:	74 0c                	je     401567 <__do_global_dtors_aux+0x27>
  40155b:	48 8b 3d 4e fb 00 00 	mov    rdi,QWORD PTR [rip+0xfb4e]        # 4110b0 <__dso_handle>
  401562:	e8 19 fc ff ff       	call   401180 <__cxa_finalize@plt>
  401567:	e8 64 ff ff ff       	call   4014d0 <deregister_tm_clones>
  40156c:	c6 05 95 fb 00 00 01 	mov    BYTE PTR [rip+0xfb95],0x1        # 411108 <completed.0>
  401573:	5d                   	pop    rbp
  401574:	c3                   	ret
  401575:	0f 1f 00             	nop    DWORD PTR [rax]
  401578:	c3                   	ret
  401579:	0f 1f 80 00 00 00 00 	nop    DWORD PTR [rax+0x0]

0000000000401580 <frame_dummy>:
  401580:	f3 0f 1e fa          	endbr64
  401584:	e9 77 ff ff ff       	jmp    401500 <register_tm_clones>
  401589:	0f 1f 80 00 00 00 00 	nop    DWORD PTR [rax+0x0]

0000000000401590 <main>:
  401590:	55                   	push   rbp
  401591:	41 57                	push   r15
  401593:	41 56                	push   r14
  401595:	41 55                	push   r13
  401597:	41 54                	push   r12
  401599:	53                   	push   rbx
  40159a:	48 83 ec 28          	sub    rsp,0x28
  40159e:	c5 f8 ae 5c 24 04    	vstmxcsr DWORD PTR [rsp+0x4]
  4015a4:	81 4c 24 04 40 80 00 00 	or     DWORD PTR [rsp+0x4],0x8040
  4015ac:	c5 f8 ae 54 24 04    	vldmxcsr DWORD PTR [rsp+0x4]
  4015b2:	83 ff 01             	cmp    edi,0x1
  4015b5:	0f 85 f3 06 00 00    	jne    401cae <main+0x71e>
  4015bb:	c5 fb 10 05 45 ba 00 00 	vmovsd xmm0,QWORD PTR [rip+0xba45]        # 40d008 <_IO_stdin_used+0x8>
  4015c3:	c5 fb 10 1d 45 ba 00 00 	vmovsd xmm3,QWORD PTR [rip+0xba45]        # 40d010 <_IO_stdin_used+0x10>
  4015cb:	c5 fb 10 25 45 ba 00 00 	vmovsd xmm4,QWORD PTR [rip+0xba45]        # 40d018 <_IO_stdin_used+0x18>
  4015d3:	48 8b 3d 26 fb 00 00 	mov    rdi,QWORD PTR [rip+0xfb26]        # 411100 <stderr@GLIBC_2.2.5>
  4015da:	be 5c d1 40 00       	mov    esi,0x40d15c
  4015df:	ba 80 00 00 00       	mov    edx,0x80
  4015e4:	b0 05                	mov    al,0x5
  4015e6:	c7 05 20 fb 00 00 80 00 00 00 	mov    DWORD PTR [rip+0xfb20],0x80        # 411110 <N>
  4015f0:	c7 05 1a fb 00 00 cd cc cc 3d 	mov    DWORD PTR [rip+0xfb1a],0x3dcccccd        # 411114 <dt>
  4015fa:	c7 05 14 fb 00 00 00 00 00 00 	mov    DWORD PTR [rip+0xfb14],0x0        # 411118 <diff>
  401604:	c7 05 0e fb 00 00 00 00 00 00 	mov    DWORD PTR [rip+0xfb0e],0x0        # 41111c <visc>
  40160e:	c7 05 08 fb 00 00 00 00 a0 40 	mov    DWORD PTR [rip+0xfb08],0x40a00000        # 411120 <force>
  401618:	c7 05 02 fb 00 00 00 00 c8 42 	mov    DWORD PTR [rip+0xfb02],0x42c80000        # 411124 <source>
  401622:	41 be 80 00 00 00    	mov    r14d,0x80
  401628:	c5 f0 57 c9          	vxorps xmm1,xmm1,xmm1
  40162c:	c5 e8 57 d2          	vxorps xmm2,xmm2,xmm2
  401630:	e8 9b fa ff ff       	call   4010d0 <fprintf@plt>
  401635:	41 83 c6 02          	add    r14d,0x2
  401639:	45 0f af f6          	imul   r14d,r14d
  40163d:	4a 8d 2c b5 00 00 00 00 	lea    rbp,[r14*4+0x0]
  401645:	48 89 ef             	mov    rdi,rbp
  401648:	48 89 6c 24 08       	mov    QWORD PTR [rsp+0x8],rbp
  40164d:	e8 9e fa ff ff       	call   4010f0 <malloc@plt>
  401652:	48 89 ef             	mov    rdi,rbp
  401655:	49 89 c7             	mov    r15,rax
  401658:	48 89 05 c9 fa 00 00 	mov    QWORD PTR [rip+0xfac9],rax        # 411128 <u>
  40165f:	e8 8c fa ff ff       	call   4010f0 <malloc@plt>
  401664:	48 89 ef             	mov    rdi,rbp
  401667:	49 89 c4             	mov    r12,rax
  40166a:	48 89 05 bf fa 00 00 	mov    QWORD PTR [rip+0xfabf],rax        # 411130 <v>
  401671:	e8 7a fa ff ff       	call   4010f0 <malloc@plt>
  401676:	48 89 ef             	mov    rdi,rbp
  401679:	49 89 c5             	mov    r13,rax
  40167c:	48 89 05 b5 fa 00 00 	mov    QWORD PTR [rip+0xfab5],rax        # 411138 <u_prev>
  401683:	e8 68 fa ff ff       	call   4010f0 <malloc@plt>
  401688:	48 89 ef             	mov    rdi,rbp
  40168b:	48 89 c3             	mov    rbx,rax
  40168e:	48 89 05 ab fa 00 00 	mov    QWORD PTR [rip+0xfaab],rax        # 411140 <v_prev>
  401695:	e8 56 fa ff ff       	call   4010f0 <malloc@plt>
  40169a:	48 8b 7c 24 08       	mov    rdi,QWORD PTR [rsp+0x8]
  40169f:	48 89 c5             	mov    rbp,rax
  4016a2:	48 89 05 9f fa 00 00 	mov    QWORD PTR [rip+0xfa9f],rax        # 411148 <dens>
  4016a9:	e8 42 fa ff ff       	call   4010f0 <malloc@plt>
  4016ae:	48 89 05 9b fa 00 00 	mov    QWORD PTR [rip+0xfa9b],rax        # 411150 <dens_prev>
  4016b5:	4d 85 ff             	test   r15,r15
  4016b8:	0f 84 80 00 00 00    	je     40173e <main+0x1ae>
  4016be:	4d 85 e4             	test   r12,r12
  4016c1:	74 7b                	je     40173e <main+0x1ae>
  4016c3:	4d 85 ed             	test   r13,r13
  4016c6:	74 76                	je     40173e <main+0x1ae>
  4016c8:	48 85 db             	test   rbx,rbx
  4016cb:	74 71                	je     40173e <main+0x1ae>
  4016cd:	48 85 ed             	test   rbp,rbp
  4016d0:	74 6c                	je     40173e <main+0x1ae>
  4016d2:	48 85 c0             	test   rax,rax
  4016d5:	74 67                	je     40173e <main+0x1ae>
  4016d7:	4d 85 f6             	test   r14,r14
  4016da:	0f 84 17 01 00 00    	je     4017f7 <main+0x267>
  4016e0:	41 83 fe 0d          	cmp    r14d,0xd
  4016e4:	72 7d                	jb     401763 <main+0x1d3>
  4016e6:	4c 8b 74 24 08       	mov    r14,QWORD PTR [rsp+0x8]
  4016eb:	48 89 c7             	mov    rdi,rax
  4016ee:	31 f6                	xor    esi,esi
  4016f0:	4c 89 f2             	mov    rdx,r14
  4016f3:	e8 88 55 00 00       	call   406c80 <_intel_fast_memset>
  4016f8:	48 89 ef             	mov    rdi,rbp
  4016fb:	31 f6                	xor    esi,esi
  4016fd:	4c 89 f2             	mov    rdx,r14
  401700:	e8 7b 55 00 00       	call   406c80 <_intel_fast_memset>
  401705:	48 89 df             	mov    rdi,rbx
  401708:	31 f6                	xor    esi,esi
  40170a:	4c 89 f2             	mov    rdx,r14
  40170d:	e8 6e 55 00 00       	call   406c80 <_intel_fast_memset>
  401712:	4c 89 ef             	mov    rdi,r13
  401715:	31 f6                	xor    esi,esi
  401717:	4c 89 f2             	mov    rdx,r14
  40171a:	e8 61 55 00 00       	call   406c80 <_intel_fast_memset>
  40171f:	4c 89 e7             	mov    rdi,r12
  401722:	31 f6                	xor    esi,esi
  401724:	4c 89 f2             	mov    rdx,r14
  401727:	e8 54 55 00 00       	call   406c80 <_intel_fast_memset>
  40172c:	4c 89 ff             	mov    rdi,r15
  40172f:	31 f6                	xor    esi,esi
  401731:	4c 89 f2             	mov    rdx,r14
  401734:	e8 47 55 00 00       	call   406c80 <_intel_fast_memset>
  401739:	e9 b9 00 00 00       	jmp    4017f7 <main+0x267>
  40173e:	48 8b 0d bb f9 00 00 	mov    rcx,QWORD PTR [rip+0xf9bb]        # 411100 <stderr@GLIBC_2.2.5>
  401745:	bf 9e d1 40 00       	mov    edi,0x40d19e
  40174a:	be 15 00 00 00       	mov    esi,0x15
  40174f:	ba 01 00 00 00       	mov    edx,0x1
  401754:	e8 07 fa ff ff       	call   401160 <fwrite@plt>
  401759:	bf 01 00 00 00       	mov    edi,0x1
  40175e:	e8 ed f9 ff ff       	call   401150 <exit@plt>
  401763:	b9 fc ff ff ff       	mov    ecx,0xfffffffc
  401768:	4c 21 f1             	and    rcx,r14
  40176b:	75 04                	jne    401771 <main+0x1e1>
  40176d:	31 c9                	xor    ecx,ecx
  40176f:	eb 4f                	jmp    4017c0 <main+0x230>
  401771:	31 d2                	xor    edx,edx
  401773:	c5 f8 57 c0          	vxorps xmm0,xmm0,xmm0
  401777:	66 0f 1f 84 00 00 00 00 00 	nop    WORD PTR [rax+rax*1+0x0]
  401780:	c5 f8 11 04 90       	vmovups XMMWORD PTR [rax+rdx*4],xmm0
  401785:	c5 f8 11 44 95 00    	vmovups XMMWORD PTR [rbp+rdx*4+0x0],xmm0
  40178b:	c5 f8 11 04 93       	vmovups XMMWORD PTR [rbx+rdx*4],xmm0
  401790:	c4 c1 78 11 44 95 00 	vmovups XMMWORD PTR [r13+rdx*4+0x0],xmm0
  401797:	c4 c1 78 11 04 94    	vmovups XMMWORD PTR [r12+rdx*4],xmm0
  40179d:	c4 c1 78 11 04 97    	vmovups XMMWORD PTR [r15+rdx*4],xmm0
  4017a3:	48 83 c2 04          	add    rdx,0x4
  4017a7:	48 39 ca             	cmp    rdx,rcx
  4017aa:	72 d4                	jb     401780 <main+0x1f0>
  4017ac:	4c 39 f1             	cmp    rcx,r14
  4017af:	74 46                	je     4017f7 <main+0x267>
  4017b1:	66 66 66 66 66 66 2e 0f 1f 84 00 00 00 00 00 	data16 data16 data16 data16 data16 cs nop WORD PTR [rax+rax*1+0x0]
  4017c0:	c7 04 88 00 00 00 00 	mov    DWORD PTR [rax+rcx*4],0x0
  4017c7:	c7 44 8d 00 00 00 00 00 	mov    DWORD PTR [rbp+rcx*4+0x0],0x0
  4017cf:	c7 04 8b 00 00 00 00 	mov    DWORD PTR [rbx+rcx*4],0x0
  4017d6:	41 c7 44 8d 00 00 00 00 00 	mov    DWORD PTR [r13+rcx*4+0x0],0x0
  4017df:	41 c7 04 8c 00 00 00 00 	mov    DWORD PTR [r12+rcx*4],0x0
  4017e7:	41 c7 04 8f 00 00 00 00 	mov    DWORD PTR [r15+rcx*4],0x0
  4017ef:	48 ff c1             	inc    rcx
  4017f2:	49 39 ce             	cmp    r14,rcx
  4017f5:	75 c9                	jne    4017c0 <main+0x230>
  4017f7:	bf cc d1 40 00       	mov    edi,0x40d1cc
  4017fc:	e8 5f f8 ff ff       	call   401060 <puts@plt>
  401801:	31 ed                	xor    ebp,ebp
  401803:	eb 20                	jmp    401825 <main+0x295>
  401805:	66 66 2e 0f 1f 84 00 00 00 00 00 	data16 cs nop WORD PTR [rax+rax*1+0x0]
  401810:	ff c0                	inc    eax
  401812:	31 c9                	xor    ecx,ecx
  401814:	01 cd                	add    ebp,ecx
  401816:	89 05 9c f8 00 00    	mov    DWORD PTR [rip+0xf89c],eax        # 4110b8 <one_step.times>
  40181c:	83 fd 0a             	cmp    ebp,0xa
  40181f:	0f 83 7d 04 00 00    	jae    401ca2 <main+0x712>
  401825:	e8 06 54 00 00       	call   406c30 <wtime>
  40182a:	48 63 35 df f8 00 00 	movsxd rsi,DWORD PTR [rip+0xf8df]        # 411110 <N>
  401831:	4c 8b 35 18 f9 00 00 	mov    r14,QWORD PTR [rip+0xf918]        # 411150 <dens_prev>
  401838:	48 8b 1d f9 f8 00 00 	mov    rbx,QWORD PTR [rip+0xf8f9]        # 411138 <u_prev>
  40183f:	4c 8b 3d fa f8 00 00 	mov    r15,QWORD PTR [rip+0xf8fa]        # 411140 <v_prev>
  401846:	c5 fb 11 05 0a f9 00 00 	vmovsd QWORD PTR [rip+0xf90a],xmm0        # 411158 <one_step.start_t>
  40184e:	49 89 f5             	mov    r13,rsi
  401851:	49 83 c5 02          	add    r13,0x2
  401855:	44 89 e8             	mov    eax,r13d
  401858:	41 0f af c5          	imul   eax,r13d
  40185c:	85 c0                	test   eax,eax
  40185e:	0f 84 5c 01 00 00    	je     4019c0 <main+0x430>
  401864:	48 89 6c 24 08       	mov    QWORD PTR [rsp+0x8],rbp
  401869:	41 89 c4             	mov    r12d,eax
  40186c:	c5 d0 57 ed          	vxorps xmm5,xmm5,xmm5
  401870:	83 f8 04             	cmp    eax,0x4
  401873:	0f 82 bd 00 00 00    	jb     401936 <main+0x3a6>
  401879:	4c 89 e1             	mov    rcx,r12
  40187c:	48 c1 e9 02          	shr    rcx,0x2
  401880:	ba 0c 00 00 00       	mov    edx,0xc
  401885:	c5 d0 57 ed          	vxorps xmm5,xmm5,xmm5
  401889:	0f 1f 80 00 00 00 00 	nop    DWORD PTR [rax+0x0]
  401890:	c5 fa 10 44 13 f4    	vmovss xmm0,DWORD PTR [rbx+rdx*1-0xc]
  401896:	c5 fa 10 4c 13 f8    	vmovss xmm1,DWORD PTR [rbx+rdx*1-0x8]
  40189c:	c4 c1 7a 10 54 17 f4 	vmovss xmm2,DWORD PTR [r15+rdx*1-0xc]
  4018a3:	c4 c1 7a 10 5c 17 f8 	vmovss xmm3,DWORD PTR [r15+rdx*1-0x8]
  4018aa:	c4 c1 7a 10 24 17    	vmovss xmm4,DWORD PTR [r15+rdx*1]
  4018b0:	c5 fa 59 c0          	vmulss xmm0,xmm0,xmm0
  4018b4:	c4 e2 69 a9 d0       	vfmadd213ss xmm2,xmm2,xmm0
  4018b9:	c5 f2 59 c1          	vmulss xmm0,xmm1,xmm1
  4018bd:	c5 fa 10 4c 13 fc    	vmovss xmm1,DWORD PTR [rbx+rdx*1-0x4]
  4018c3:	c4 e2 61 b9 c3       	vfmadd231ss xmm0,xmm3,xmm3
  4018c8:	c4 c1 7a 10 5c 17 fc 	vmovss xmm3,DWORD PTR [r15+rdx*1-0x4]
  4018cf:	c5 f2 59 c9          	vmulss xmm1,xmm1,xmm1
  4018d3:	c4 e2 61 a9 d9       	vfmadd213ss xmm3,xmm3,xmm1
  4018d8:	c5 fa 10 0c 13       	vmovss xmm1,DWORD PTR [rbx+rdx*1]
  4018dd:	c5 f2 59 c9          	vmulss xmm1,xmm1,xmm1
  4018e1:	c4 e2 59 a9 e1       	vfmadd213ss xmm4,xmm4,xmm1
  4018e6:	c4 c1 7a 10 4c 16 f4 	vmovss xmm1,DWORD PTR [r14+rdx*1-0xc]
  4018ed:	c4 e3 71 21 ca 10    	vinsertps xmm1,xmm1,xmm2,0x10
  4018f3:	c4 c1 7a 10 54 16 f8 	vmovss xmm2,DWORD PTR [r14+rdx*1-0x8]
  4018fa:	c5 f0 5f cd          	vmaxps xmm1,xmm1,xmm5
  4018fe:	c4 e3 69 21 c0 10    	vinsertps xmm0,xmm2,xmm0,0x10
  401904:	c4 c1 7a 10 54 16 fc 	vmovss xmm2,DWORD PTR [r14+rdx*1-0x4]
  40190b:	c4 e3 69 21 d3 10    	vinsertps xmm2,xmm2,xmm3,0x10
  401911:	c5 f8 5f c2          	vmaxps xmm0,xmm0,xmm2
  401915:	c5 f0 5f c0          	vmaxps xmm0,xmm1,xmm0
  401919:	c4 c1 7a 10 0c 16    	vmovss xmm1,DWORD PTR [r14+rdx*1]
  40191f:	48 83 c2 10          	add    rdx,0x10
  401923:	48 ff c9             	dec    rcx
  401926:	c4 e3 71 21 cc 10    	vinsertps xmm1,xmm1,xmm4,0x10
  40192c:	c5 f0 5f e8          	vmaxps xmm5,xmm1,xmm0
  401930:	0f 85 5a ff ff ff    	jne    401890 <main+0x300>
  401936:	44 89 e1             	mov    ecx,r12d
  401939:	83 e1 fc             	and    ecx,0xfffffffc
  40193c:	4c 39 e1             	cmp    rcx,r12
  40193f:	73 3b                	jae    40197c <main+0x3ec>
  401941:	48 89 ca             	mov    rdx,rcx
  401944:	66 66 66 2e 0f 1f 84 00 00 00 00 00 	data16 data16 cs nop WORD PTR [rax+rax*1+0x0]
  401950:	c5 fa 10 04 93       	vmovss xmm0,DWORD PTR [rbx+rdx*4]
  401955:	c4 c1 7a 10 0c 97    	vmovss xmm1,DWORD PTR [r15+rdx*4]
  40195b:	c5 fa 59 c0          	vmulss xmm0,xmm0,xmm0
  40195f:	c4 e2 71 a9 c8       	vfmadd213ss xmm1,xmm1,xmm0
  401964:	c4 c1 7a 10 04 96    	vmovss xmm0,DWORD PTR [r14+rdx*4]
  40196a:	48 ff c2             	inc    rdx
  40196d:	c4 e3 79 21 c1 10    	vinsertps xmm0,xmm0,xmm1,0x10
  401973:	c5 f8 5f ed          	vmaxps xmm5,xmm0,xmm5
  401977:	49 39 d4             	cmp    r12,rdx
  40197a:	75 d4                	jne    401950 <main+0x3c0>
  40197c:	83 f8 0d             	cmp    eax,0xd
  40197f:	72 4f                	jb     4019d0 <main+0x440>
  401981:	49 c1 e4 02          	shl    r12,0x2
  401985:	48 89 f5             	mov    rbp,rsi
  401988:	4c 89 f7             	mov    rdi,r14
  40198b:	31 f6                	xor    esi,esi
  40198d:	c5 f8 11 6c 24 10    	vmovups XMMWORD PTR [rsp+0x10],xmm5
  401993:	4c 89 e2             	mov    rdx,r12
  401996:	e8 e5 52 00 00       	call   406c80 <_intel_fast_memset>
  40199b:	4c 89 ff             	mov    rdi,r15
  40199e:	31 f6                	xor    esi,esi
  4019a0:	4c 89 e2             	mov    rdx,r12
  4019a3:	e8 d8 52 00 00       	call   406c80 <_intel_fast_memset>
  4019a8:	48 89 df             	mov    rdi,rbx
  4019ab:	31 f6                	xor    esi,esi
  4019ad:	4c 89 e2             	mov    rdx,r12
  4019b0:	e8 cb 52 00 00       	call   406c80 <_intel_fast_memset>
  4019b5:	c5 f8 10 6c 24 10    	vmovups xmm5,XMMWORD PTR [rsp+0x10]
  4019bb:	48 89 ee             	mov    rsi,rbp
  4019be:	eb 6f                	jmp    401a2f <main+0x49f>
  4019c0:	c5 d0 57 ed          	vxorps xmm5,xmm5,xmm5
  4019c4:	eb 7c                	jmp    401a42 <main+0x4b2>
  4019c6:	66 2e 0f 1f 84 00 00 00 00 00 	cs nop WORD PTR [rax+rax*1+0x0]
  4019d0:	c5 f8 57 c0          	vxorps xmm0,xmm0,xmm0
  4019d4:	48 85 c9             	test   rcx,rcx
  4019d7:	74 28                	je     401a01 <main+0x471>
  4019d9:	31 c0                	xor    eax,eax
  4019db:	0f 1f 44 00 00       	nop    DWORD PTR [rax+rax*1+0x0]
  4019e0:	c4 c1 78 11 04 86    	vmovups XMMWORD PTR [r14+rax*4],xmm0
  4019e6:	c4 c1 78 11 04 87    	vmovups XMMWORD PTR [r15+rax*4],xmm0
  4019ec:	c5 f8 11 04 83       	vmovups XMMWORD PTR [rbx+rax*4],xmm0
  4019f1:	48 83 c0 04          	add    rax,0x4
  4019f5:	48 39 c8             	cmp    rax,rcx
  4019f8:	72 e6                	jb     4019e0 <main+0x450>
  4019fa:	4c 39 e1             	cmp    rcx,r12
  4019fd:	75 11                	jne    401a10 <main+0x480>
  4019ff:	eb 2e                	jmp    401a2f <main+0x49f>
  401a01:	31 c9                	xor    ecx,ecx
  401a03:	66 66 66 66 2e 0f 1f 84 00 00 00 00 00 	data16 data16 data16 cs nop WORD PTR [rax+rax*1+0x0]
  401a10:	41 c7 04 8e 00 00 00 00 	mov    DWORD PTR [r14+rcx*4],0x0
  401a18:	41 c7 04 8f 00 00 00 00 	mov    DWORD PTR [r15+rcx*4],0x0
  401a20:	c7 04 8b 00 00 00 00 	mov    DWORD PTR [rbx+rcx*4],0x0
  401a27:	48 ff c1             	inc    rcx
  401a2a:	49 39 cc             	cmp    r12,rcx
  401a2d:	75 e1                	jne    401a10 <main+0x480>
  401a2f:	c5 fa 16 c5          	vmovshdup xmm0,xmm5
  401a33:	c5 f8 2e 05 f5 b5 00 00 	vucomiss xmm0,DWORD PTR [rip+0xb5f5]        # 40d030 <_IO_stdin_used+0x30>
  401a3b:	48 8b 6c 24 08       	mov    rbp,QWORD PTR [rsp+0x8]
  401a40:	73 36                	jae    401a78 <main+0x4e8>
  401a42:	c5 fa 10 05 ea b5 00 00 	vmovss xmm0,DWORD PTR [rip+0xb5ea]        # 40d034 <_IO_stdin_used+0x34>
  401a4a:	89 f0                	mov    eax,esi
  401a4c:	c1 e8 1f             	shr    eax,0x1f
  401a4f:	4c 89 e9             	mov    rcx,r13
  401a52:	48 d1 e9             	shr    rcx,1
  401a55:	c5 fa 59 05 c3 f6 00 00 	vmulss xmm0,xmm0,DWORD PTR [rip+0xf6c3]        # 411120 <force>
  401a5d:	01 f0                	add    eax,esi
  401a5f:	d1 f8                	sar    eax,1
  401a61:	48 98                	cdqe
  401a63:	48 0f af c8          	imul   rcx,rax
  401a67:	48 d1 e8             	shr    rax,1
  401a6a:	48 01 c8             	add    rax,rcx
  401a6d:	c5 fa 11 04 83       	vmovss DWORD PTR [rbx+rax*4],xmm0
  401a72:	c4 c1 7a 11 04 87    	vmovss DWORD PTR [r15+rax*4],xmm0
  401a78:	c5 f8 2e 2d b8 b5 00 00 	vucomiss xmm5,DWORD PTR [rip+0xb5b8]        # 40d038 <_IO_stdin_used+0x38>
  401a80:	73 31                	jae    401ab3 <main+0x523>
  401a82:	c5 fa 10 05 aa b5 00 00 	vmovss xmm0,DWORD PTR [rip+0xb5aa]        # 40d034 <_IO_stdin_used+0x34>
  401a8a:	89 f0                	mov    eax,esi
  401a8c:	c1 e8 1f             	shr    eax,0x1f
  401a8f:	49 63 cd             	movsxd rcx,r13d
  401a92:	c5 fa 59 05 8a f6 00 00 	vmulss xmm0,xmm0,DWORD PTR [rip+0xf68a]        # 411124 <source>
  401a9a:	01 f0                	add    eax,esi
  401a9c:	48 d1 e9             	shr    rcx,1
  401a9f:	d1 f8                	sar    eax,1
  401aa1:	48 98                	cdqe
  401aa3:	48 0f af c8          	imul   rcx,rax
  401aa7:	48 d1 e8             	shr    rax,1
  401aaa:	48 01 c8             	add    rax,rcx
  401aad:	c4 c1 7a 11 04 86    	vmovss DWORD PTR [r14+rax*4],xmm0
  401ab3:	e8 78 51 00 00       	call   406c30 <wtime>
  401ab8:	c5 fb 5c 05 98 f6 00 00 	vsubsd xmm0,xmm0,QWORD PTR [rip+0xf698]        # 411158 <one_step.start_t>
  401ac0:	c5 fb 10 0d 58 b5 00 00 	vmovsd xmm1,QWORD PTR [rip+0xb558]        # 40d020 <_IO_stdin_used+0x20>
  401ac8:	8b 05 42 f6 00 00    	mov    eax,DWORD PTR [rip+0xf642]        # 411110 <N>
  401ace:	0f af c0             	imul   eax,eax
  401ad1:	c5 fb 59 c1          	vmulsd xmm0,xmm0,xmm1
  401ad5:	c5 cb 2a c8          	vcvtsi2sd xmm1,xmm6,eax
  401ad9:	c5 fb 5e c1          	vdivsd xmm0,xmm0,xmm1
  401add:	c5 fb 58 05 83 f6 00 00 	vaddsd xmm0,xmm0,QWORD PTR [rip+0xf683]        # 411168 <one_step.react_ns_p_cell>
  401ae5:	c5 fb 11 05 7b f6 00 00 	vmovsd QWORD PTR [rip+0xf67b],xmm0        # 411168 <one_step.react_ns_p_cell>
  401aed:	e8 3e 51 00 00       	call   406c30 <wtime>
  401af2:	c5 fb 11 05 5e f6 00 00 	vmovsd QWORD PTR [rip+0xf65e],xmm0        # 411158 <one_step.start_t>
  401afa:	c5 fa 10 05 1a f6 00 00 	vmovss xmm0,DWORD PTR [rip+0xf61a]        # 41111c <visc>
  401b02:	c5 fa 10 0d 0a f6 00 00 	vmovss xmm1,DWORD PTR [rip+0xf60a]        # 411114 <dt>
  401b0a:	8b 3d 00 f6 00 00    	mov    edi,DWORD PTR [rip+0xf600]        # 411110 <N>
  401b10:	48 8b 35 11 f6 00 00 	mov    rsi,QWORD PTR [rip+0xf611]        # 411128 <u>
  401b17:	48 8b 15 12 f6 00 00 	mov    rdx,QWORD PTR [rip+0xf612]        # 411130 <v>
  401b1e:	48 8b 0d 13 f6 00 00 	mov    rcx,QWORD PTR [rip+0xf613]        # 411138 <u_prev>
  401b25:	4c 8b 05 14 f6 00 00 	mov    r8,QWORD PTR [rip+0xf614]        # 411140 <v_prev>
  401b2c:	e8 3f 41 00 00       	call   405c70 <vel_step>
  401b31:	e8 fa 50 00 00       	call   406c30 <wtime>
  401b36:	c5 fb 5c 05 1a f6 00 00 	vsubsd xmm0,xmm0,QWORD PTR [rip+0xf61a]        # 411158 <one_step.start_t>
  401b3e:	8b 05 cc f5 00 00    	mov    eax,DWORD PTR [rip+0xf5cc]        # 411110 <N>
  401b44:	c5 fb 59 05 d4 b4 00 00 	vmulsd xmm0,xmm0,QWORD PTR [rip+0xb4d4]        # 40d020 <_IO_stdin_used+0x20>
  401b4c:	0f af c0             	imul   eax,eax
  401b4f:	c5 cb 2a c8          	vcvtsi2sd xmm1,xmm6,eax
  401b53:	c5 fb 5e c1          	vdivsd xmm0,xmm0,xmm1
  401b57:	c5 fb 58 05 11 f6 00 00 	vaddsd xmm0,xmm0,QWORD PTR [rip+0xf611]        # 411170 <one_step.vel_ns_p_cell>
  401b5f:	c5 fb 11 05 09 f6 00 00 	vmovsd QWORD PTR [rip+0xf609],xmm0        # 411170 <one_step.vel_ns_p_cell>
  401b67:	e8 c4 50 00 00       	call   406c30 <wtime>
  401b6c:	c5 fb 11 05 e4 f5 00 00 	vmovsd QWORD PTR [rip+0xf5e4],xmm0        # 411158 <one_step.start_t>
  401b74:	c5 fa 10 05 9c f5 00 00 	vmovss xmm0,DWORD PTR [rip+0xf59c]        # 411118 <diff>
  401b7c:	c5 fa 10 0d 90 f5 00 00 	vmovss xmm1,DWORD PTR [rip+0xf590]        # 411114 <dt>
  401b84:	8b 3d 86 f5 00 00    	mov    edi,DWORD PTR [rip+0xf586]        # 411110 <N>
  401b8a:	48 8b 35 b7 f5 00 00 	mov    rsi,QWORD PTR [rip+0xf5b7]        # 411148 <dens>
  401b91:	48 8b 15 b8 f5 00 00 	mov    rdx,QWORD PTR [rip+0xf5b8]        # 411150 <dens_prev>
  401b98:	48 8b 0d 89 f5 00 00 	mov    rcx,QWORD PTR [rip+0xf589]        # 411128 <u>
  401b9f:	4c 8b 05 8a f5 00 00 	mov    r8,QWORD PTR [rip+0xf58a]        # 411130 <v>
  401ba6:	e8 55 03 00 00       	call   401f00 <dens_step>
  401bab:	e8 80 50 00 00       	call   406c30 <wtime>
  401bb0:	c5 fb 5c 05 a0 f5 00 00 	vsubsd xmm0,xmm0,QWORD PTR [rip+0xf5a0]        # 411158 <one_step.start_t>
  401bb8:	8b 05 52 f5 00 00    	mov    eax,DWORD PTR [rip+0xf552]        # 411110 <N>
  401bbe:	c5 fb 59 05 5a b4 00 00 	vmulsd xmm0,xmm0,QWORD PTR [rip+0xb45a]        # 40d020 <_IO_stdin_used+0x20>
  401bc6:	0f af c0             	imul   eax,eax
  401bc9:	c5 cb 2a c8          	vcvtsi2sd xmm1,xmm6,eax
  401bcd:	c5 fb 5e c1          	vdivsd xmm0,xmm0,xmm1
  401bd1:	c5 fb 58 05 9f f5 00 00 	vaddsd xmm0,xmm0,QWORD PTR [rip+0xf59f]        # 411178 <one_step.dens_ns_p_cell>
  401bd9:	c5 fb 11 05 97 f5 00 00 	vmovsd QWORD PTR [rip+0xf597],xmm0        # 411178 <one_step.dens_ns_p_cell>
  401be1:	e8 4a 50 00 00       	call   406c30 <wtime>
  401be6:	c5 fb 5c 05 72 f5 00 00 	vsubsd xmm0,xmm0,QWORD PTR [rip+0xf572]        # 411160 <one_step.one_second>
  401bee:	c5 fb 10 0d 32 b4 00 00 	vmovsd xmm1,QWORD PTR [rip+0xb432]        # 40d028 <_IO_stdin_used+0x28>
  401bf6:	8b 05 bc f4 00 00    	mov    eax,DWORD PTR [rip+0xf4bc]        # 4110b8 <one_step.times>
  401bfc:	c5 f9 2e c1          	vucomisd xmm0,xmm1
  401c00:	0f 86 0a fc ff ff    	jbe    401810 <main+0x280>
  401c06:	c5 fb 10 25 1a b4 00 00 	vmovsd xmm4,QWORD PTR [rip+0xb41a]        # 40d028 <_IO_stdin_used+0x28>
  401c0e:	c5 cb 2a c0          	vcvtsi2sd xmm0,xmm6,eax
  401c12:	c5 fb 10 0d 4e f5 00 00 	vmovsd xmm1,QWORD PTR [rip+0xf54e]        # 411168 <one_step.react_ns_p_cell>
  401c1a:	c5 fb 10 15 4e f5 00 00 	vmovsd xmm2,QWORD PTR [rip+0xf54e]        # 411170 <one_step.vel_ns_p_cell>
  401c22:	c5 fb 10 1d 4e f5 00 00 	vmovsd xmm3,QWORD PTR [rip+0xf54e]        # 411178 <one_step.dens_ns_p_cell>
  401c2a:	8b 35 e0 f4 00 00    	mov    esi,DWORD PTR [rip+0xf4e0]        # 411110 <N>
  401c30:	bf b4 d1 40 00       	mov    edi,0x40d1b4
  401c35:	b0 04                	mov    al,0x4
  401c37:	c5 db 5e e0          	vdivsd xmm4,xmm4,xmm0
  401c3b:	c5 e3 58 c2          	vaddsd xmm0,xmm3,xmm2
  401c3f:	c5 db 59 e9          	vmulsd xmm5,xmm4,xmm1
  401c43:	c5 f3 59 cc          	vmulsd xmm1,xmm1,xmm4
  401c47:	c5 eb 59 d4          	vmulsd xmm2,xmm2,xmm4
  401c4b:	c5 e3 59 dc          	vmulsd xmm3,xmm3,xmm4
  401c4f:	c4 e2 d9 a9 c5       	vfmadd213sd xmm0,xmm4,xmm5
  401c54:	e8 67 f4 ff ff       	call   4010c0 <printf@plt>
  401c59:	e8 d2 4f 00 00       	call   406c30 <wtime>
  401c5e:	c5 fb 11 05 fa f4 00 00 	vmovsd QWORD PTR [rip+0xf4fa],xmm0        # 411160 <one_step.one_second>
  401c66:	48 c7 05 f7 f4 00 00 00 00 00 00 	mov    QWORD PTR [rip+0xf4f7],0x0        # 411168 <one_step.react_ns_p_cell>
  401c71:	48 c7 05 f4 f4 00 00 00 00 00 00 	mov    QWORD PTR [rip+0xf4f4],0x0        # 411170 <one_step.vel_ns_p_cell>
  401c7c:	48 c7 05 f1 f4 00 00 00 00 00 00 	mov    QWORD PTR [rip+0xf4f1],0x0        # 411178 <one_step.dens_ns_p_cell>
  401c87:	b8 01 00 00 00       	mov    eax,0x1
  401c8c:	b9 01 00 00 00       	mov    ecx,0x1
  401c91:	01 cd                	add    ebp,ecx
  401c93:	89 05 1f f4 00 00    	mov    DWORD PTR [rip+0xf41f],eax        # 4110b8 <one_step.times>
  401c99:	83 fd 0a             	cmp    ebp,0xa
  401c9c:	0f 82 83 fb ff ff    	jb     401825 <main+0x295>
  401ca2:	e8 e9 01 00 00       	call   401e90 <free_data>
  401ca7:	31 ff                	xor    edi,edi
  401ca9:	e8 a2 f4 ff ff       	call   401150 <exit@plt>
  401cae:	48 89 f3             	mov    rbx,rsi
  401cb1:	83 ff 02             	cmp    edi,0x2
  401cb4:	0f 84 9b 00 00 00    	je     401d55 <main+0x7c5>
  401cba:	83 ff 07             	cmp    edi,0x7
  401cbd:	0f 85 e3 00 00 00    	jne    401da6 <main+0x816>
  401cc3:	48 8b 7b 08          	mov    rdi,QWORD PTR [rbx+0x8]
  401cc7:	ba 0a 00 00 00       	mov    edx,0xa
  401ccc:	31 f6                	xor    esi,esi
  401cce:	e8 0d f4 ff ff       	call   4010e0 <strtol@plt>
  401cd3:	49 89 c6             	mov    r14,rax
  401cd6:	44 89 35 33 f4 00 00 	mov    DWORD PTR [rip+0xf433],r14d        # 411110 <N>
  401cdd:	31 f6                	xor    esi,esi
  401cdf:	48 8b 7b 10          	mov    rdi,QWORD PTR [rbx+0x10]
  401ce3:	e8 88 f3 ff ff       	call   401070 <strtod@plt>
  401ce8:	c5 fb 5a c0          	vcvtsd2ss xmm0,xmm0,xmm0
  401cec:	31 f6                	xor    esi,esi
  401cee:	c5 fa 11 05 1e f4 00 00 	vmovss DWORD PTR [rip+0xf41e],xmm0        # 411114 <dt>
  401cf6:	48 8b 7b 18          	mov    rdi,QWORD PTR [rbx+0x18]
  401cfa:	e8 71 f3 ff ff       	call   401070 <strtod@plt>
  401cff:	c5 fb 5a c0          	vcvtsd2ss xmm0,xmm0,xmm0
  401d03:	31 f6                	xor    esi,esi
  401d05:	c5 fa 11 05 0b f4 00 00 	vmovss DWORD PTR [rip+0xf40b],xmm0        # 411118 <diff>
  401d0d:	48 8b 7b 20          	mov    rdi,QWORD PTR [rbx+0x20]
  401d11:	e8 5a f3 ff ff       	call   401070 <strtod@plt>
  401d16:	c5 fb 5a c0          	vcvtsd2ss xmm0,xmm0,xmm0
  401d1a:	31 f6                	xor    esi,esi
  401d1c:	c5 fa 11 05 f8 f3 00 00 	vmovss DWORD PTR [rip+0xf3f8],xmm0        # 41111c <visc>
  401d24:	48 8b 7b 28          	mov    rdi,QWORD PTR [rbx+0x28]
  401d28:	e8 43 f3 ff ff       	call   401070 <strtod@plt>
  401d2d:	c5 fb 5a c0          	vcvtsd2ss xmm0,xmm0,xmm0
  401d31:	31 f6                	xor    esi,esi
  401d33:	c5 fa 11 05 e5 f3 00 00 	vmovss DWORD PTR [rip+0xf3e5],xmm0        # 411120 <force>
  401d3b:	48 8b 7b 30          	mov    rdi,QWORD PTR [rbx+0x30]
  401d3f:	e8 2c f3 ff ff       	call   401070 <strtod@plt>
  401d44:	c5 fb 5a c0          	vcvtsd2ss xmm0,xmm0,xmm0
  401d48:	c5 fa 11 05 d4 f3 00 00 	vmovss DWORD PTR [rip+0xf3d4],xmm0        # 411124 <source>
  401d50:	e9 e0 f8 ff ff       	jmp    401635 <main+0xa5>
  401d55:	48 8b 7b 08          	mov    rdi,QWORD PTR [rbx+0x8]
  401d59:	ba 0a 00 00 00       	mov    edx,0xa
  401d5e:	31 f6                	xor    esi,esi
  401d60:	e8 7b f3 ff ff       	call   4010e0 <strtol@plt>
  401d65:	49 89 c6             	mov    r14,rax
  401d68:	44 89 35 a1 f3 00 00 	mov    DWORD PTR [rip+0xf3a1],r14d        # 411110 <N>
  401d6f:	c7 05 9b f3 00 00 cd cc cc 3d 	mov    DWORD PTR [rip+0xf39b],0x3dcccccd        # 411114 <dt>
  401d79:	c7 05 95 f3 00 00 00 00 00 00 	mov    DWORD PTR [rip+0xf395],0x0        # 411118 <diff>
  401d83:	c7 05 8f f3 00 00 00 00 00 00 	mov    DWORD PTR [rip+0xf38f],0x0        # 41111c <visc>
  401d8d:	c7 05 89 f3 00 00 00 00 a0 40 	mov    DWORD PTR [rip+0xf389],0x40a00000        # 411120 <force>
  401d97:	c7 05 83 f3 00 00 00 00 c8 42 	mov    DWORD PTR [rip+0xf383],0x42c80000        # 411124 <source>
  401da1:	e9 8f f8 ff ff       	jmp    401635 <main+0xa5>
  401da6:	48 8b 3d 53 f3 00 00 	mov    rdi,QWORD PTR [rip+0xf353]        # 411100 <stderr@GLIBC_2.2.5>
  401dad:	48 8b 13             	mov    rdx,QWORD PTR [rbx]
  401db0:	be 3c d0 40 00       	mov    esi,0x40d03c
  401db5:	31 c0                	xor    eax,eax
  401db7:	e8 14 f3 ff ff       	call   4010d0 <fprintf@plt>
  401dbc:	48 8b 0d 3d f3 00 00 	mov    rcx,QWORD PTR [rip+0xf33d]        # 411100 <stderr@GLIBC_2.2.5>
  401dc3:	bf 64 d0 40 00       	mov    edi,0x40d064
  401dc8:	be 07 00 00 00       	mov    esi,0x7
  401dcd:	ba 01 00 00 00       	mov    edx,0x1
  401dd2:	e8 89 f3 ff ff       	call   401160 <fwrite@plt>
  401dd7:	48 8b 0d 22 f3 00 00 	mov    rcx,QWORD PTR [rip+0xf322]        # 411100 <stderr@GLIBC_2.2.5>
  401dde:	bf 6c d0 40 00       	mov    edi,0x40d06c
  401de3:	be 1b 00 00 00       	mov    esi,0x1b
  401de8:	ba 01 00 00 00       	mov    edx,0x1
  401ded:	e8 6e f3 ff ff       	call   401160 <fwrite@plt>
  401df2:	48 8b 0d 07 f3 00 00 	mov    rcx,QWORD PTR [rip+0xf307]        # 411100 <stderr@GLIBC_2.2.5>
  401df9:	bf 88 d0 40 00       	mov    edi,0x40d088
  401dfe:	be 15 00 00 00       	mov    esi,0x15
  401e03:	ba 01 00 00 00       	mov    edx,0x1
  401e08:	e8 53 f3 ff ff       	call   401160 <fwrite@plt>
  401e0d:	48 8b 0d ec f2 00 00 	mov    rcx,QWORD PTR [rip+0xf2ec]        # 411100 <stderr@GLIBC_2.2.5>
  401e14:	bf 9e d0 40 00       	mov    edi,0x40d09e
  401e19:	be 29 00 00 00       	mov    esi,0x29
  401e1e:	ba 01 00 00 00       	mov    edx,0x1
  401e23:	e8 38 f3 ff ff       	call   401160 <fwrite@plt>
  401e28:	48 8b 0d d1 f2 00 00 	mov    rcx,QWORD PTR [rip+0xf2d1]        # 411100 <stderr@GLIBC_2.2.5>
  401e2f:	bf c8 d0 40 00       	mov    edi,0x40d0c8
  401e34:	be 22 00 00 00       	mov    esi,0x22
  401e39:	ba 01 00 00 00       	mov    edx,0x1
  401e3e:	e8 1d f3 ff ff       	call   401160 <fwrite@plt>
  401e43:	48 8b 0d b6 f2 00 00 	mov    rcx,QWORD PTR [rip+0xf2b6]        # 411100 <stderr@GLIBC_2.2.5>
  401e4a:	bf eb d0 40 00       	mov    edi,0x40d0eb
  401e4f:	be 3b 00 00 00       	mov    esi,0x3b
  401e54:	ba 01 00 00 00       	mov    edx,0x1
  401e59:	e8 02 f3 ff ff       	call   401160 <fwrite@plt>
  401e5e:	48 8b 0d 9b f2 00 00 	mov    rcx,QWORD PTR [rip+0xf29b]        # 411100 <stderr@GLIBC_2.2.5>
  401e65:	bf 27 d1 40 00       	mov    edi,0x40d127
  401e6a:	be 34 00 00 00       	mov    esi,0x34
  401e6f:	ba 01 00 00 00       	mov    edx,0x1
  401e74:	e8 e7 f2 ff ff       	call   401160 <fwrite@plt>
  401e79:	bf 01 00 00 00       	mov    edi,0x1
  401e7e:	e8 cd f2 ff ff       	call   401150 <exit@plt>
  401e83:	66 66 66 66 2e 0f 1f 84 00 00 00 00 00 	data16 data16 data16 cs nop WORD PTR [rax+rax*1+0x0]

0000000000401e90 <free_data>:
  401e90:	50                   	push   rax
  401e91:	48 8b 3d 90 f2 00 00 	mov    rdi,QWORD PTR [rip+0xf290]        # 411128 <u>
  401e98:	48 85 ff             	test   rdi,rdi
  401e9b:	74 05                	je     401ea2 <free_data+0x12>
  401e9d:	e8 9e f1 ff ff       	call   401040 <free@plt>
  401ea2:	48 8b 3d 87 f2 00 00 	mov    rdi,QWORD PTR [rip+0xf287]        # 411130 <v>
  401ea9:	48 85 ff             	test   rdi,rdi
  401eac:	74 05                	je     401eb3 <free_data+0x23>
  401eae:	e8 8d f1 ff ff       	call   401040 <free@plt>
  401eb3:	48 8b 3d 7e f2 00 00 	mov    rdi,QWORD PTR [rip+0xf27e]        # 411138 <u_prev>
  401eba:	48 85 ff             	test   rdi,rdi
  401ebd:	74 05                	je     401ec4 <free_data+0x34>
  401ebf:	e8 7c f1 ff ff       	call   401040 <free@plt>
  401ec4:	48 8b 3d 75 f2 00 00 	mov    rdi,QWORD PTR [rip+0xf275]        # 411140 <v_prev>
  401ecb:	48 85 ff             	test   rdi,rdi
  401ece:	74 05                	je     401ed5 <free_data+0x45>
  401ed0:	e8 6b f1 ff ff       	call   401040 <free@plt>
  401ed5:	48 8b 3d 6c f2 00 00 	mov    rdi,QWORD PTR [rip+0xf26c]        # 411148 <dens>
  401edc:	48 85 ff             	test   rdi,rdi
  401edf:	74 05                	je     401ee6 <free_data+0x56>
  401ee1:	e8 5a f1 ff ff       	call   401040 <free@plt>
  401ee6:	48 8b 3d 63 f2 00 00 	mov    rdi,QWORD PTR [rip+0xf263]        # 411150 <dens_prev>
  401eed:	48 85 ff             	test   rdi,rdi
  401ef0:	74 06                	je     401ef8 <free_data+0x68>
  401ef2:	58                   	pop    rax
  401ef3:	e9 48 f1 ff ff       	jmp    401040 <free@plt>
  401ef8:	58                   	pop    rax
  401ef9:	c3                   	ret
  401efa:	66 0f 1f 44 00 00    	nop    WORD PTR [rax+rax*1+0x0]

0000000000401f00 <dens_step>:
  401f00:	41 57                	push   r15
  401f02:	41 56                	push   r14
  401f04:	41 55                	push   r13
  401f06:	41 54                	push   r12
  401f08:	53                   	push   rbx
  401f09:	48 83 ec 10          	sub    rsp,0x10
  401f0d:	41 89 fd             	mov    r13d,edi
  401f10:	41 8d 45 02          	lea    eax,[r13+0x2]
  401f14:	c5 f8 28 d9          	vmovaps xmm3,xmm1
  401f18:	4d 89 c6             	mov    r14,r8
  401f1b:	49 89 cf             	mov    r15,rcx
  401f1e:	49 89 d4             	mov    r12,rdx
  401f21:	48 89 f3             	mov    rbx,rsi
  401f24:	0f af c0             	imul   eax,eax
  401f27:	85 c0                	test   eax,eax
  401f29:	0f 84 9a 00 00 00    	je     401fc9 <dens_step+0xc9>
  401f2f:	89 c0                	mov    eax,eax
  401f31:	49 8d 4c 84 fc       	lea    rcx,[r12+rax*4-0x4]
  401f36:	48 39 d9             	cmp    rcx,rbx
  401f39:	72 30                	jb     401f6b <dens_step+0x6b>
  401f3b:	48 8d 4c 83 fc       	lea    rcx,[rbx+rax*4-0x4]
  401f40:	4c 39 e1             	cmp    rcx,r12
  401f43:	72 26                	jb     401f6b <dens_step+0x6b>
  401f45:	31 c9                	xor    ecx,ecx
  401f47:	66 0f 1f 84 00 00 00 00 00 	nop    WORD PTR [rax+rax*1+0x0]
  401f50:	c4 c1 7a 10 0c 8c    	vmovss xmm1,DWORD PTR [r12+rcx*4]
  401f56:	c4 e2 61 a9 0c 8b    	vfmadd213ss xmm1,xmm3,DWORD PTR [rbx+rcx*4]
  401f5c:	c5 fa 11 0c 8b       	vmovss DWORD PTR [rbx+rcx*4],xmm1
  401f61:	48 ff c1             	inc    rcx
  401f64:	48 39 c8             	cmp    rax,rcx
  401f67:	75 e7                	jne    401f50 <dens_step+0x50>
  401f69:	eb 5e                	jmp    401fc9 <dens_step+0xc9>
  401f6b:	b9 f8 ff ff ff       	mov    ecx,0xfffffff8
  401f70:	48 21 c1             	and    rcx,rax
  401f73:	74 2c                	je     401fa1 <dens_step+0xa1>
  401f75:	c4 e2 7d 18 cb       	vbroadcastss ymm1,xmm3
  401f7a:	31 d2                	xor    edx,edx
  401f7c:	0f 1f 40 00          	nop    DWORD PTR [rax+0x0]
  401f80:	c4 c1 7c 10 14 94    	vmovups ymm2,YMMWORD PTR [r12+rdx*4]
  401f86:	c4 e2 75 a8 14 93    	vfmadd213ps ymm2,ymm1,YMMWORD PTR [rbx+rdx*4]
  401f8c:	c5 fc 11 14 93       	vmovups YMMWORD PTR [rbx+rdx*4],ymm2
  401f91:	48 83 c2 08          	add    rdx,0x8
  401f95:	48 39 ca             	cmp    rdx,rcx
  401f98:	72 e6                	jb     401f80 <dens_step+0x80>
  401f9a:	48 39 c1             	cmp    rcx,rax
  401f9d:	75 11                	jne    401fb0 <dens_step+0xb0>
  401f9f:	eb 28                	jmp    401fc9 <dens_step+0xc9>
  401fa1:	31 c9                	xor    ecx,ecx
  401fa3:	66 66 66 66 2e 0f 1f 84 00 00 00 00 00 	data16 data16 data16 cs nop WORD PTR [rax+rax*1+0x0]
  401fb0:	c4 c1 7a 10 0c 8c    	vmovss xmm1,DWORD PTR [r12+rcx*4]
  401fb6:	c4 e2 61 a9 0c 8b    	vfmadd213ss xmm1,xmm3,DWORD PTR [rbx+rcx*4]
  401fbc:	c5 fa 11 0c 8b       	vmovss DWORD PTR [rbx+rcx*4],xmm1
  401fc1:	48 ff c1             	inc    rcx
  401fc4:	48 39 c8             	cmp    rax,rcx
  401fc7:	75 e7                	jne    401fb0 <dens_step+0xb0>
  401fc9:	44 89 e8             	mov    eax,r13d
  401fcc:	c4 e1 da 2a c8       	vcvtsi2ss xmm1,xmm4,rax
  401fd1:	c5 e2 59 c0          	vmulss xmm0,xmm3,xmm0
  401fd5:	44 89 ef             	mov    edi,r13d
  401fd8:	31 f6                	xor    esi,esi
  401fda:	4c 89 e2             	mov    rdx,r12
  401fdd:	48 89 d9             	mov    rcx,rbx
  401fe0:	c5 f8 11 1c 24       	vmovups XMMWORD PTR [rsp],xmm3
  401fe5:	c5 f2 59 c9          	vmulss xmm1,xmm1,xmm1
  401fe9:	c5 fa 59 c1          	vmulss xmm0,xmm0,xmm1
  401fed:	c5 fa 10 0d ff b1 00 00 	vmovss xmm1,DWORD PTR [rip+0xb1ff]        # 40d1f4 <_IO_stdin_used+0x1f4>
  401ff5:	c4 e2 79 a9 0d 3a b0 00 00 	vfmadd213ss xmm1,xmm0,DWORD PTR [rip+0xb03a]        # 40d038 <_IO_stdin_used+0x38>
  401ffe:	c5 f8 77             	vzeroupper
  402001:	e8 3a 07 00 00       	call   402740 <lin_solve>
  402006:	c5 f8 10 04 24       	vmovups xmm0,XMMWORD PTR [rsp]
  40200b:	44 89 ef             	mov    edi,r13d
  40200e:	31 f6                	xor    esi,esi
  402010:	48 89 da             	mov    rdx,rbx
  402013:	4c 89 e1             	mov    rcx,r12
  402016:	4d 89 f8             	mov    r8,r15
  402019:	4d 89 f1             	mov    r9,r14
  40201c:	48 83 c4 10          	add    rsp,0x10
  402020:	5b                   	pop    rbx
  402021:	41 5c                	pop    r12
  402023:	41 5d                	pop    r13
  402025:	41 5e                	pop    r14
  402027:	41 5f                	pop    r15
  402029:	eb 05                	jmp    402030 <advect>
  40202b:	0f 1f 44 00 00       	nop    DWORD PTR [rax+rax*1+0x0]

0000000000402030 <advect>:
  402030:	55                   	push   rbp
  402031:	41 57                	push   r15
  402033:	41 56                	push   r14
  402035:	41 55                	push   r13
  402037:	41 54                	push   r12
  402039:	53                   	push   rbx
  40203a:	89 74 24 d4          	mov    DWORD PTR [rsp-0x2c],esi
  40203e:	48 89 7c 24 d8       	mov    QWORD PTR [rsp-0x28],rdi
  402043:	85 ff                	test   edi,edi
  402045:	0f 84 cc 06 00 00    	je     402717 <advect+0x6e7>
  40204b:	48 8b 44 24 d8       	mov    rax,QWORD PTR [rsp-0x28]
  402050:	c4 62 79 18 05 9f b1 00 00 	vbroadcastss xmm8,DWORD PTR [rip+0xb19f]        # 40d1f8 <_IO_stdin_used+0x1f8>
  402059:	c5 fa 10 2d d7 af 00 00 	vmovss xmm5,DWORD PTR [rip+0xafd7]        # 40d038 <_IO_stdin_used+0x38>
  402061:	41 bc 01 00 00 00    	mov    r12d,0x1
  402067:	c4 41 01 76 ff       	vpcmpeqd xmm15,xmm15,xmm15
  40206c:	89 c6                	mov    esi,eax
  40206e:	c4 e1 f2 2a ce       	vcvtsi2ss xmm1,xmm1,rsi
  402073:	44 8d 78 02          	lea    r15d,[rax+0x2]
  402077:	48 8d 46 01          	lea    rax,[rsi+0x1]
  40207b:	c4 c1 f9 6e d7       	vmovq  xmm2,r15
  402080:	48 89 44 24 f0       	mov    QWORD PTR [rsp-0x10],rax
  402085:	48 8d 46 ff          	lea    rax,[rsi-0x1]
  402089:	4d 89 fb             	mov    r11,r15
  40208c:	49 d1 eb             	shr    r11,1
  40208f:	c4 62 7d 59 ea       	vpbroadcastq ymm13,xmm2
  402094:	48 89 44 24 e8       	mov    QWORD PTR [rsp-0x18],rax
  402099:	89 f0                	mov    eax,esi
  40209b:	83 e0 03             	and    eax,0x3
  40209e:	83 e6 fc             	and    esi,0xfffffffc
  4020a1:	c5 f2 59 c0          	vmulss xmm0,xmm1,xmm0
  4020a5:	c5 f2 58 0d 4b b1 00 00 	vaddss xmm1,xmm1,DWORD PTR [rip+0xb14b]        # 40d1f8 <_IO_stdin_used+0x1f8>
  4020ad:	48 89 44 24 e0       	mov    QWORD PTR [rsp-0x20],rax
  4020b2:	48 89 74 24 f8       	mov    QWORD PTR [rsp-0x8],rsi
  4020b7:	c4 c1 65 73 d5 01    	vpsrlq ymm3,ymm13,0x1
  4020bd:	c4 62 79 18 d8       	vbroadcastss xmm11,xmm0
  4020c2:	c4 62 79 18 e1       	vbroadcastss xmm12,xmm1
  4020c7:	eb 15                	jmp    4020de <advect+0xae>
  4020c9:	0f 1f 80 00 00 00 00 	nop    DWORD PTR [rax+0x0]
  4020d0:	49 ff c4             	inc    r12
  4020d3:	4c 3b 64 24 f0       	cmp    r12,QWORD PTR [rsp-0x10]
  4020d8:	0f 84 39 06 00 00    	je     402717 <advect+0x6e7>
  4020de:	4d 89 e5             	mov    r13,r12
  4020e1:	49 d1 ed             	shr    r13,1
  4020e4:	48 83 7c 24 e8 03    	cmp    QWORD PTR [rsp-0x18],0x3
  4020ea:	44 89 e6             	mov    esi,r12d
  4020ed:	c5 78 28 d5          	vmovaps xmm10,xmm5
  4020f1:	c5 c8 57 f6          	vxorps xmm6,xmm6,xmm6
  4020f5:	c4 e1 ca 2a ee       	vcvtsi2ss xmm5,xmm6,rsi
  4020fa:	be 01 00 00 00       	mov    esi,0x1
  4020ff:	c4 62 79 18 cd       	vbroadcastss xmm9,xmm5
  402104:	c5 78 29 d5          	vmovaps xmm5,xmm10
  402108:	0f 82 af 04 00 00    	jb     4025bd <advect+0x58d>
  40210e:	be 04 00 00 00       	mov    esi,0x4
  402113:	66 66 66 66 2e 0f 1f 84 00 00 00 00 00 	data16 data16 data16 cs nop WORD PTR [rax+rax*1+0x0]
  402120:	49 89 f2             	mov    r10,rsi
  402123:	48 83 c6 fd          	add    rsi,0xfffffffffffffffd
  402127:	41 89 f6             	mov    r14d,esi
  40212a:	45 31 e6             	xor    r14d,r12d
  40212d:	89 f0                	mov    eax,esi
  40212f:	41 83 e6 01          	and    r14d,0x1
  402133:	c4 e1 b2 2a c8       	vcvtsi2ss xmm1,xmm9,rax
  402138:	41 f7 de             	neg    r14d
  40213b:	45 21 fe             	and    r14d,r15d
  40213e:	4b 8d 7c 32 fd       	lea    rdi,[r10+r14*1-0x3]
  402143:	49 0f af fb          	imul   rdi,r11
  402147:	4c 01 ef             	add    rdi,r13
  40214a:	c4 c1 7a 10 04 b9    	vmovss xmm0,DWORD PTR [r9+rdi*4]
  402150:	c4 c3 79 21 04 b8 10 	vinsertps xmm0,xmm0,DWORD PTR [r8+rdi*4],0x10
  402157:	c4 e2 21 bc c8       	vfnmadd231ps xmm1,xmm11,xmm0
  40215c:	c4 c1 70 c2 c0 01    	vcmpltps xmm0,xmm1,xmm8
  402162:	c5 98 5d c9          	vminps xmm1,xmm12,xmm1
  402166:	c4 c3 71 4a c0 00    	vblendvps xmm0,xmm1,xmm8,xmm0
  40216c:	c5 fa 5b c8          	vcvttps2dq xmm1,xmm0
  402170:	c5 f9 70 e1 55       	vpshufd xmm4,xmm1,0x55
  402175:	c4 c1 71 fa d7       	vpsubd xmm2,xmm1,xmm15
  40217a:	c4 e2 79 25 c9       	vpmovsxdq xmm1,xmm1
  40217f:	c5 f8 5b fc          	vcvtdq2ps xmm7,xmm4
  402183:	c4 e2 79 25 e2       	vpmovsxdq xmm4,xmm2
  402188:	c4 e3 69 02 d1 0c    	vpblendd xmm2,xmm2,xmm1,0xc
  40218e:	c5 f9 70 f4 ee       	vpshufd xmm6,xmm4,0xee
  402193:	c5 59 6c f1          	vpunpcklqdq xmm14,xmm4,xmm1
  402197:	c4 e3 4d 38 d2 01    	vinserti128 ymm2,ymm6,xmm2,0x1
  40219d:	c5 f9 70 f1 4e       	vpshufd xmm6,xmm1,0x4e
  4021a2:	c4 e3 0d 38 f6 01    	vinserti128 ymm6,ymm14,xmm6,0x1
  4021a8:	c4 63 0d 38 f4 01    	vinserti128 ymm14,ymm14,xmm4,0x1
  4021ae:	c5 f1 6d e4          	vpunpckhqdq xmm4,xmm1,xmm4
  4021b2:	c4 e2 7d 59 c9       	vpbroadcastq ymm1,xmm1
  4021b7:	c5 d9 73 d4 01       	vpsrlq xmm4,xmm4,0x1
  4021bc:	c5 cd ef d2          	vpxor  ymm2,ymm6,ymm2
  4021c0:	c4 e3 0d 02 c9 c0    	vpblendd ymm1,ymm14,ymm1,0xc0
  4021c6:	c4 41 09 ef f6       	vpxor  xmm14,xmm14,xmm14
  4021cb:	c4 e3 fd 00 e4 05    	vpermq ymm4,ymm4,0x5
  4021d1:	c4 e3 79 0a f0 0b    	vroundss xmm6,xmm0,xmm0,0xb
  4021d7:	c5 ed 73 f2 3f       	vpsllq ymm2,ymm2,0x3f
  4021dc:	c4 e2 0d 37 d2       	vpcmpgtq ymm2,ymm14,ymm2
  4021e1:	c5 95 db d2          	vpand  ymm2,ymm13,ymm2
  4021e5:	c5 fa 5c f6          	vsubss xmm6,xmm0,xmm6
  4021e9:	c5 fa 16 c0          	vmovshdup xmm0,xmm0
  4021ed:	c5 ed d4 c9          	vpaddq ymm1,ymm2,ymm1
  4021f1:	c5 fa 5c c7          	vsubss xmm0,xmm0,xmm7
  4021f5:	c5 f5 f4 d3          	vpmuludq ymm2,ymm1,ymm3
  4021f9:	c5 f5 73 d1 20       	vpsrlq ymm1,ymm1,0x20
  4021fe:	c5 f5 f4 cb          	vpmuludq ymm1,ymm1,ymm3
  402202:	c5 aa 5c ee          	vsubss xmm5,xmm10,xmm6
  402206:	c5 ed d4 d4          	vpaddq ymm2,ymm2,ymm4
  40220a:	c5 f5 73 f1 20       	vpsllq ymm1,ymm1,0x20
  40220f:	c5 f5 d4 ca          	vpaddq ymm1,ymm1,ymm2
  402213:	c4 e3 7d 39 ca 01    	vextracti128 xmm2,ymm1,0x1
  402219:	c4 e1 f9 7e d3       	vmovq  rbx,xmm2
  40221e:	c4 e3 f9 16 d0 01    	vpextrq rax,xmm2,0x1
  402224:	c5 ca 59 14 99       	vmulss xmm2,xmm6,DWORD PTR [rcx+rbx*4]
  402229:	c4 e1 f9 7e cb       	vmovq  rbx,xmm1
  40222e:	c4 e2 51 b9 14 81    	vfmadd231ss xmm2,xmm5,DWORD PTR [rcx+rax*4]
  402234:	c4 e3 f9 16 c8 01    	vpextrq rax,xmm1,0x1
  40223a:	c4 e2 69 9b 34 99    	vfmsub132ss xmm6,xmm2,DWORD PTR [rcx+rbx*4]
  402240:	c4 e2 51 b9 34 81    	vfmadd231ss xmm6,xmm5,DWORD PTR [rcx+rax*4]
  402246:	8d 46 01             	lea    eax,[rsi+0x1]
  402249:	83 c6 02             	add    esi,0x2
  40224c:	c4 e2 79 a9 f2       	vfmadd213ss xmm6,xmm0,xmm2
  402251:	c4 e1 b2 2a c0       	vcvtsi2ss xmm0,xmm9,rax
  402256:	44 31 e0             	xor    eax,r12d
  402259:	83 e0 01             	and    eax,0x1
  40225c:	f7 d8                	neg    eax
  40225e:	44 21 f8             	and    eax,r15d
  402261:	c5 fa 11 34 ba       	vmovss DWORD PTR [rdx+rdi*4],xmm6
  402266:	4a 8d 7c 10 fe       	lea    rdi,[rax+r10*1-0x2]
  40226b:	49 0f af fb          	imul   rdi,r11
  40226f:	4c 01 ef             	add    rdi,r13
  402272:	c4 c1 7a 10 0c b9    	vmovss xmm1,DWORD PTR [r9+rdi*4]
  402278:	c4 c3 71 21 0c b8 10 	vinsertps xmm1,xmm1,DWORD PTR [r8+rdi*4],0x10
  40227f:	c4 e2 21 bc c1       	vfnmadd231ps xmm0,xmm11,xmm1
  402284:	c4 c1 78 c2 c8 01    	vcmpltps xmm1,xmm0,xmm8
  40228a:	c5 98 5d c0          	vminps xmm0,xmm12,xmm0
  40228e:	c4 c3 79 4a c0 10    	vblendvps xmm0,xmm0,xmm8,xmm1
  402294:	c5 fa 5b c8          	vcvttps2dq xmm1,xmm0
  402298:	c5 f9 70 e1 55       	vpshufd xmm4,xmm1,0x55
  40229d:	c4 c1 71 fa d7       	vpsubd xmm2,xmm1,xmm15
  4022a2:	c4 e2 79 25 c9       	vpmovsxdq xmm1,xmm1
  4022a7:	c5 f8 5b f4          	vcvtdq2ps xmm6,xmm4
  4022ab:	c4 e2 79 25 e2       	vpmovsxdq xmm4,xmm2
  4022b0:	c4 e3 69 02 d1 0c    	vpblendd xmm2,xmm2,xmm1,0xc
  4022b6:	c5 f9 70 fc ee       	vpshufd xmm7,xmm4,0xee
  4022bb:	c5 d9 6c e9          	vpunpcklqdq xmm5,xmm4,xmm1
  4022bf:	c4 e3 45 38 d2 01    	vinserti128 ymm2,ymm7,xmm2,0x1
  4022c5:	c5 f9 70 f9 4e       	vpshufd xmm7,xmm1,0x4e
  4022ca:	c4 e3 55 38 ff 01    	vinserti128 ymm7,ymm5,xmm7,0x1
  4022d0:	c4 e3 55 38 ec 01    	vinserti128 ymm5,ymm5,xmm4,0x1
  4022d6:	c5 f1 6d e4          	vpunpckhqdq xmm4,xmm1,xmm4
  4022da:	c4 e2 7d 59 c9       	vpbroadcastq ymm1,xmm1
  4022df:	c5 d9 73 d4 01       	vpsrlq xmm4,xmm4,0x1
  4022e4:	c5 c5 ef d2          	vpxor  ymm2,ymm7,ymm2
  4022e8:	c4 e3 55 02 c9 c0    	vpblendd ymm1,ymm5,ymm1,0xc0
  4022ee:	c4 e3 fd 00 e4 05    	vpermq ymm4,ymm4,0x5
  4022f4:	c4 e3 79 0a f8 0b    	vroundss xmm7,xmm0,xmm0,0xb
  4022fa:	c5 ed 73 f2 3f       	vpsllq ymm2,ymm2,0x3f
  4022ff:	c4 e2 0d 37 d2       	vpcmpgtq ymm2,ymm14,ymm2
  402304:	c5 95 db d2          	vpand  ymm2,ymm13,ymm2
  402308:	c5 fa 5c ff          	vsubss xmm7,xmm0,xmm7
  40230c:	c5 fa 16 c0          	vmovshdup xmm0,xmm0
  402310:	c5 ed d4 c9          	vpaddq ymm1,ymm2,ymm1
  402314:	c5 fa 5c c6          	vsubss xmm0,xmm0,xmm6
  402318:	c5 f5 f4 d3          	vpmuludq ymm2,ymm1,ymm3
  40231c:	c5 f5 73 d1 20       	vpsrlq ymm1,ymm1,0x20
  402321:	c5 f5 f4 cb          	vpmuludq ymm1,ymm1,ymm3
  402325:	c5 aa 5c ef          	vsubss xmm5,xmm10,xmm7
  402329:	c5 ed d4 d4          	vpaddq ymm2,ymm2,ymm4
  40232d:	c5 f5 73 f1 20       	vpsllq ymm1,ymm1,0x20
  402332:	c5 f5 d4 ca          	vpaddq ymm1,ymm1,ymm2
  402336:	c4 e3 7d 39 ca 01    	vextracti128 xmm2,ymm1,0x1
  40233c:	c4 e1 f9 7e d3       	vmovq  rbx,xmm2
  402341:	c4 e3 f9 16 d0 01    	vpextrq rax,xmm2,0x1
  402347:	c5 c2 59 14 99       	vmulss xmm2,xmm7,DWORD PTR [rcx+rbx*4]
  40234c:	c4 e1 f9 7e cb       	vmovq  rbx,xmm1
  402351:	c4 e2 51 b9 14 81    	vfmadd231ss xmm2,xmm5,DWORD PTR [rcx+rax*4]
  402357:	c4 e3 f9 16 c8 01    	vpextrq rax,xmm1,0x1
  40235d:	c4 e1 b2 2a ce       	vcvtsi2ss xmm1,xmm9,rsi
  402362:	c4 e2 69 9b 3c 99    	vfmsub132ss xmm7,xmm2,DWORD PTR [rcx+rbx*4]
  402368:	c4 e2 51 b9 3c 81    	vfmadd231ss xmm7,xmm5,DWORD PTR [rcx+rax*4]
  40236e:	c4 e2 79 a9 fa       	vfmadd213ss xmm7,xmm0,xmm2
  402373:	c5 fa 11 3c ba       	vmovss DWORD PTR [rdx+rdi*4],xmm7
  402378:	4b 8d 7c 16 ff       	lea    rdi,[r14+r10*1-0x1]
  40237d:	49 0f af fb          	imul   rdi,r11
  402381:	4c 01 ef             	add    rdi,r13
  402384:	c4 c1 7a 10 04 b9    	vmovss xmm0,DWORD PTR [r9+rdi*4]
  40238a:	c4 c3 79 21 04 b8 10 	vinsertps xmm0,xmm0,DWORD PTR [r8+rdi*4],0x10
  402391:	c4 e2 21 bc c8       	vfnmadd231ps xmm1,xmm11,xmm0
  402396:	c4 c1 70 c2 c0 01    	vcmpltps xmm0,xmm1,xmm8
  40239c:	c5 98 5d c9          	vminps xmm1,xmm12,xmm1
  4023a0:	c4 c3 71 4a c0 00    	vblendvps xmm0,xmm1,xmm8,xmm0
  4023a6:	c5 fa 5b c8          	vcvttps2dq xmm1,xmm0
  4023aa:	c5 f9 70 e1 55       	vpshufd xmm4,xmm1,0x55
  4023af:	c4 c1 71 fa d7       	vpsubd xmm2,xmm1,xmm15
  4023b4:	c4 e2 79 25 c9       	vpmovsxdq xmm1,xmm1
  4023b9:	c5 f8 5b f4          	vcvtdq2ps xmm6,xmm4
  4023bd:	c4 e2 79 25 e2       	vpmovsxdq xmm4,xmm2
  4023c2:	c4 e3 69 02 d1 0c    	vpblendd xmm2,xmm2,xmm1,0xc
  4023c8:	c5 f9 70 fc ee       	vpshufd xmm7,xmm4,0xee
  4023cd:	c5 d9 6c e9          	vpunpcklqdq xmm5,xmm4,xmm1
  4023d1:	c4 e3 45 38 d2 01    	vinserti128 ymm2,ymm7,xmm2,0x1
  4023d7:	c5 f9 70 f9 4e       	vpshufd xmm7,xmm1,0x4e
  4023dc:	c4 e3 55 38 ff 01    	vinserti128 ymm7,ymm5,xmm7,0x1
  4023e2:	c4 e3 55 38 ec 01    	vinserti128 ymm5,ymm5,xmm4,0x1
  4023e8:	c5 f1 6d e4          	vpunpckhqdq xmm4,xmm1,xmm4
  4023ec:	c4 e2 7d 59 c9       	vpbroadcastq ymm1,xmm1
  4023f1:	c5 d9 73 d4 01       	vpsrlq xmm4,xmm4,0x1
  4023f6:	c5 c5 ef d2          	vpxor  ymm2,ymm7,ymm2
  4023fa:	c4 e3 55 02 c9 c0    	vpblendd ymm1,ymm5,ymm1,0xc0
  402400:	c4 e3 fd 00 e4 05    	vpermq ymm4,ymm4,0x5
  402406:	c4 e3 79 0a f8 0b    	vroundss xmm7,xmm0,xmm0,0xb
  40240c:	c5 ed 73 f2 3f       	vpsllq ymm2,ymm2,0x3f
  402411:	c4 e2 0d 37 d2       	vpcmpgtq ymm2,ymm14,ymm2
  402416:	c5 95 db d2          	vpand  ymm2,ymm13,ymm2
  40241a:	c5 fa 5c ff          	vsubss xmm7,xmm0,xmm7
  40241e:	c5 fa 16 c0          	vmovshdup xmm0,xmm0
  402422:	c5 ed d4 c9          	vpaddq ymm1,ymm2,ymm1
  402426:	c5 fa 5c c6          	vsubss xmm0,xmm0,xmm6
  40242a:	c5 f5 f4 d3          	vpmuludq ymm2,ymm1,ymm3
  40242e:	c5 f5 73 d1 20       	vpsrlq ymm1,ymm1,0x20
  402433:	c5 f5 f4 cb          	vpmuludq ymm1,ymm1,ymm3
  402437:	c5 aa 5c ef          	vsubss xmm5,xmm10,xmm7
  40243b:	c5 ed d4 d4          	vpaddq ymm2,ymm2,ymm4
  40243f:	c5 f5 73 f1 20       	vpsllq ymm1,ymm1,0x20
  402444:	c5 f5 d4 ca          	vpaddq ymm1,ymm1,ymm2
  402448:	c4 e3 7d 39 ca 01    	vextracti128 xmm2,ymm1,0x1
  40244e:	c4 e1 f9 7e d6       	vmovq  rsi,xmm2
  402453:	c4 e3 f9 16 d0 01    	vpextrq rax,xmm2,0x1
  402459:	c5 c2 59 14 b1       	vmulss xmm2,xmm7,DWORD PTR [rcx+rsi*4]
  40245e:	c4 e1 f9 7e ce       	vmovq  rsi,xmm1
  402463:	c4 e2 51 b9 14 81    	vfmadd231ss xmm2,xmm5,DWORD PTR [rcx+rax*4]
  402469:	c4 e3 f9 16 c8 01    	vpextrq rax,xmm1,0x1
  40246f:	c4 e2 69 9b 3c b1    	vfmsub132ss xmm7,xmm2,DWORD PTR [rcx+rsi*4]
  402475:	44 89 d6             	mov    esi,r10d
  402478:	44 31 e6             	xor    esi,r12d
  40247b:	83 e6 01             	and    esi,0x1
  40247e:	f7 de                	neg    esi
  402480:	44 21 fe             	and    esi,r15d
  402483:	c4 e2 51 b9 3c 81    	vfmadd231ss xmm7,xmm5,DWORD PTR [rcx+rax*4]
  402489:	4c 01 d6             	add    rsi,r10
  40248c:	44 89 d0             	mov    eax,r10d
  40248f:	49 0f af f3          	imul   rsi,r11
  402493:	c4 e1 b2 2a c8       	vcvtsi2ss xmm1,xmm9,rax
  402498:	4c 01 ee             	add    rsi,r13
  40249b:	c4 e2 79 a9 fa       	vfmadd213ss xmm7,xmm0,xmm2
  4024a0:	c5 fa 11 3c ba       	vmovss DWORD PTR [rdx+rdi*4],xmm7
  4024a5:	c4 c1 7a 10 04 b1    	vmovss xmm0,DWORD PTR [r9+rsi*4]
  4024ab:	c4 c3 79 21 04 b0 10 	vinsertps xmm0,xmm0,DWORD PTR [r8+rsi*4],0x10
  4024b2:	c4 e2 21 bc c8       	vfnmadd231ps xmm1,xmm11,xmm0
  4024b7:	c4 c1 70 c2 c0 01    	vcmpltps xmm0,xmm1,xmm8
  4024bd:	c5 98 5d c9          	vminps xmm1,xmm12,xmm1
  4024c1:	c4 c3 71 4a f0 00    	vblendvps xmm6,xmm1,xmm8,xmm0
  4024c7:	c5 fa 5b c6          	vcvttps2dq xmm0,xmm6
  4024cb:	c4 c1 79 fa cf       	vpsubd xmm1,xmm0,xmm15
  4024d0:	c4 e2 79 25 d0       	vpmovsxdq xmm2,xmm0
  4024d5:	c5 f9 70 c0 55       	vpshufd xmm0,xmm0,0x55
  4024da:	c4 e2 79 25 e1       	vpmovsxdq xmm4,xmm1
  4024df:	c4 e3 71 02 ca 0c    	vpblendd xmm1,xmm1,xmm2,0xc
  4024e5:	c5 f8 5b c0          	vcvtdq2ps xmm0,xmm0
  4024e9:	c5 f9 70 fc ee       	vpshufd xmm7,xmm4,0xee
  4024ee:	c5 d9 6c ea          	vpunpcklqdq xmm5,xmm4,xmm2
  4024f2:	c4 e3 45 38 c9 01    	vinserti128 ymm1,ymm7,xmm1,0x1
  4024f8:	c5 f9 70 fa 4e       	vpshufd xmm7,xmm2,0x4e
  4024fd:	c4 e3 55 38 ff 01    	vinserti128 ymm7,ymm5,xmm7,0x1
  402503:	c4 e3 55 38 ec 01    	vinserti128 ymm5,ymm5,xmm4,0x1
  402509:	c5 e9 6d e4          	vpunpckhqdq xmm4,xmm2,xmm4
  40250d:	c4 e2 7d 59 d2       	vpbroadcastq ymm2,xmm2
  402512:	c5 d9 73 d4 01       	vpsrlq xmm4,xmm4,0x1
  402517:	c5 c5 ef c9          	vpxor  ymm1,ymm7,ymm1
  40251b:	c4 e3 55 02 d2 c0    	vpblendd ymm2,ymm5,ymm2,0xc0
  402521:	c4 e3 fd 00 e4 05    	vpermq ymm4,ymm4,0x5
  402527:	c5 f5 73 f1 3f       	vpsllq ymm1,ymm1,0x3f
  40252c:	c4 e2 0d 37 c9       	vpcmpgtq ymm1,ymm14,ymm1
  402531:	c5 95 db c9          	vpand  ymm1,ymm13,ymm1
  402535:	c5 f5 d4 ca          	vpaddq ymm1,ymm1,ymm2
  402539:	c5 f5 f4 d3          	vpmuludq ymm2,ymm1,ymm3
  40253d:	c5 f5 73 d1 20       	vpsrlq ymm1,ymm1,0x20
  402542:	c5 f5 f4 cb          	vpmuludq ymm1,ymm1,ymm3
  402546:	c5 ed d4 d4          	vpaddq ymm2,ymm2,ymm4
  40254a:	c5 fa 16 e6          	vmovshdup xmm4,xmm6
  40254e:	c5 f5 73 f1 20       	vpsllq ymm1,ymm1,0x20
  402553:	c5 f5 d4 ca          	vpaddq ymm1,ymm1,ymm2
  402557:	c4 e3 7d 39 ca 01    	vextracti128 xmm2,ymm1,0x1
  40255d:	c4 e3 f9 16 cb 01    	vpextrq rbx,xmm1,0x1
  402563:	c4 e1 f9 7e cd       	vmovq  rbp,xmm1
  402568:	c4 e3 f9 16 d0 01    	vpextrq rax,xmm2,0x1
  40256e:	c4 e1 f9 7e d7       	vmovq  rdi,xmm2
  402573:	c4 e3 49 0a d6 0b    	vroundss xmm2,xmm6,xmm6,0xb
  402579:	c5 da 5c c0          	vsubss xmm0,xmm4,xmm0
  40257d:	c5 ca 5c d2          	vsubss xmm2,xmm6,xmm2
  402581:	c5 ea 59 24 b9       	vmulss xmm4,xmm2,DWORD PTR [rcx+rdi*4]
  402586:	c5 aa 5c ca          	vsubss xmm1,xmm10,xmm2
  40258a:	c4 e2 71 b9 24 81    	vfmadd231ss xmm4,xmm1,DWORD PTR [rcx+rax*4]
  402590:	c4 e2 59 9b 14 a9    	vfmsub132ss xmm2,xmm4,DWORD PTR [rcx+rbp*4]
  402596:	c4 e2 71 b9 14 99    	vfmadd231ss xmm2,xmm1,DWORD PTR [rcx+rbx*4]
  40259c:	c4 e2 79 a9 d4       	vfmadd213ss xmm2,xmm0,xmm4
  4025a1:	c5 fa 11 14 b2       	vmovss DWORD PTR [rdx+rsi*4],xmm2
  4025a6:	49 8d 72 04          	lea    rsi,[r10+0x4]
  4025aa:	4c 3b 54 24 f8       	cmp    r10,QWORD PTR [rsp-0x8]
  4025af:	0f 85 6b fb ff ff    	jne    402120 <advect+0xf0>
  4025b5:	48 83 c6 fd          	add    rsi,0xfffffffffffffffd
  4025b9:	c5 78 29 d5          	vmovaps xmm5,xmm10
  4025bd:	48 83 7c 24 e0 00    	cmp    QWORD PTR [rsp-0x20],0x0
  4025c3:	c4 41 28 57 d2       	vxorps xmm10,xmm10,xmm10
  4025c8:	0f 84 02 fb ff ff    	je     4020d0 <advect+0xa0>
  4025ce:	4c 8b 74 24 e0       	mov    r14,QWORD PTR [rsp-0x20]
  4025d3:	66 66 66 66 2e 0f 1f 84 00 00 00 00 00 	data16 data16 data16 cs nop WORD PTR [rax+rax*1+0x0]
  4025e0:	44 89 e0             	mov    eax,r12d
  4025e3:	31 f0                	xor    eax,esi
  4025e5:	44 89 ff             	mov    edi,r15d
  4025e8:	83 e0 01             	and    eax,0x1
  4025eb:	f7 d8                	neg    eax
  4025ed:	21 c7                	and    edi,eax
  4025ef:	89 f0                	mov    eax,esi
  4025f1:	48 01 f7             	add    rdi,rsi
  4025f4:	c4 e1 b2 2a f8       	vcvtsi2ss xmm7,xmm9,rax
  4025f9:	48 ff c6             	inc    rsi
  4025fc:	49 0f af fb          	imul   rdi,r11
  402600:	4c 01 ef             	add    rdi,r13
  402603:	49 ff ce             	dec    r14
  402606:	c4 c1 7a 10 34 b9    	vmovss xmm6,DWORD PTR [r9+rdi*4]
  40260c:	c4 c3 49 21 34 b8 10 	vinsertps xmm6,xmm6,DWORD PTR [r8+rdi*4],0x10
  402613:	c4 e2 21 bc fe       	vfnmadd231ps xmm7,xmm11,xmm6
  402618:	c4 c1 40 c2 f0 01    	vcmpltps xmm6,xmm7,xmm8
  40261e:	c5 98 5d ff          	vminps xmm7,xmm12,xmm7
  402622:	c4 c3 41 4a f0 60    	vblendvps xmm6,xmm7,xmm8,xmm6
  402628:	c5 fa 5b fe          	vcvttps2dq xmm7,xmm6
  40262c:	c4 c1 41 fa c7       	vpsubd xmm0,xmm7,xmm15
  402631:	c4 e2 79 25 cf       	vpmovsxdq xmm1,xmm7
  402636:	c4 e2 79 25 d0       	vpmovsxdq xmm2,xmm0
  40263b:	c4 e3 79 02 c1 0c    	vpblendd xmm0,xmm0,xmm1,0xc
  402641:	c5 f9 70 e1 4e       	vpshufd xmm4,xmm1,0x4e
  402646:	c5 69 6c f1          	vpunpcklqdq xmm14,xmm2,xmm1
  40264a:	c5 79 70 fa ee       	vpshufd xmm15,xmm2,0xee
  40264f:	c4 e3 05 38 c0 01    	vinserti128 ymm0,ymm15,xmm0,0x1
  402655:	c4 e3 0d 38 e4 01    	vinserti128 ymm4,ymm14,xmm4,0x1
  40265b:	c4 41 01 76 ff       	vpcmpeqd xmm15,xmm15,xmm15
  402660:	c5 dd ef c0          	vpxor  ymm0,ymm4,ymm0
  402664:	c4 e3 0d 38 e2 01    	vinserti128 ymm4,ymm14,xmm2,0x1
  40266a:	c5 f1 6d d2          	vpunpckhqdq xmm2,xmm1,xmm2
  40266e:	c4 e2 7d 59 c9       	vpbroadcastq ymm1,xmm1
  402673:	c5 fd 73 f0 3f       	vpsllq ymm0,ymm0,0x3f
  402678:	c5 e9 73 d2 01       	vpsrlq xmm2,xmm2,0x1
  40267d:	c4 e2 2d 37 c0       	vpcmpgtq ymm0,ymm10,ymm0
  402682:	c4 e3 5d 02 c9 c0    	vpblendd ymm1,ymm4,ymm1,0xc0
  402688:	c4 e3 fd 00 d2 05    	vpermq ymm2,ymm2,0x5
  40268e:	c5 fa 16 e6          	vmovshdup xmm4,xmm6
  402692:	c5 95 db c0          	vpand  ymm0,ymm13,ymm0
  402696:	c5 fd d4 c1          	vpaddq ymm0,ymm0,ymm1
  40269a:	c5 fd f4 cb          	vpmuludq ymm1,ymm0,ymm3
  40269e:	c5 fd 73 d0 20       	vpsrlq ymm0,ymm0,0x20
  4026a3:	c5 fd f4 c3          	vpmuludq ymm0,ymm0,ymm3
  4026a7:	c5 f5 d4 ca          	vpaddq ymm1,ymm1,ymm2
  4026ab:	c5 f9 70 d7 55       	vpshufd xmm2,xmm7,0x55
  4026b0:	c5 fd 73 f0 20       	vpsllq ymm0,ymm0,0x20
  4026b5:	c5 f8 5b d2          	vcvtdq2ps xmm2,xmm2
  4026b9:	c5 fd d4 c1          	vpaddq ymm0,ymm0,ymm1
  4026bd:	c4 e3 7d 39 c1 01    	vextracti128 xmm1,ymm0,0x1
  4026c3:	c4 e3 f9 16 c5 01    	vpextrq rbp,xmm0,0x1
  4026c9:	c4 c1 f9 7e c2       	vmovq  r10,xmm0
  4026ce:	c5 da 5c d2          	vsubss xmm2,xmm4,xmm2
  4026d2:	c4 e3 f9 16 c8 01    	vpextrq rax,xmm1,0x1
  4026d8:	c4 e1 f9 7e cb       	vmovq  rbx,xmm1
  4026dd:	c4 e3 49 0a ce 0b    	vroundss xmm1,xmm6,xmm6,0xb
  4026e3:	c5 ca 5c c9          	vsubss xmm1,xmm6,xmm1
  4026e7:	c5 f2 59 04 99       	vmulss xmm0,xmm1,DWORD PTR [rcx+rbx*4]
  4026ec:	c5 d2 5c e1          	vsubss xmm4,xmm5,xmm1
  4026f0:	c4 e2 59 b9 04 81    	vfmadd231ss xmm0,xmm4,DWORD PTR [rcx+rax*4]
  4026f6:	c4 a2 79 9b 0c 91    	vfmsub132ss xmm1,xmm0,DWORD PTR [rcx+r10*4]
  4026fc:	c4 e2 59 b9 0c a9    	vfmadd231ss xmm1,xmm4,DWORD PTR [rcx+rbp*4]
  402702:	c4 e2 69 a9 c8       	vfmadd213ss xmm1,xmm2,xmm0
  402707:	c5 fa 11 0c ba       	vmovss DWORD PTR [rdx+rdi*4],xmm1
  40270c:	0f 85 ce fe ff ff    	jne    4025e0 <advect+0x5b0>
  402712:	e9 b9 f9 ff ff       	jmp    4020d0 <advect+0xa0>
  402717:	8b 74 24 d4          	mov    esi,DWORD PTR [rsp-0x2c]
  40271b:	48 8b 7c 24 d8       	mov    rdi,QWORD PTR [rsp-0x28]
  402720:	5b                   	pop    rbx
  402721:	41 5c                	pop    r12
  402723:	41 5d                	pop    r13
  402725:	41 5e                	pop    r14
  402727:	41 5f                	pop    r15
  402729:	5d                   	pop    rbp
  40272a:	c5 f8 77             	vzeroupper
  40272d:	e9 3e 16 00 00       	jmp    403d70 <set_bnd>
  402732:	66 66 66 66 66 2e 0f 1f 84 00 00 00 00 00 	data16 data16 data16 data16 cs nop WORD PTR [rax+rax*1+0x0]

0000000000402740 <lin_solve>:
  402740:	55                   	push   rbp
  402741:	41 57                	push   r15
  402743:	41 56                	push   r14
  402745:	41 55                	push   r13
  402747:	41 54                	push   r12
  402749:	53                   	push   rbx
  40274a:	48 81 ec b8 01 00 00 	sub    rsp,0x1b8
  402751:	49 89 d7             	mov    r15,rdx
  402754:	89 f3                	mov    ebx,esi
  402756:	85 ff                	test   edi,edi
  402758:	0f 84 14 15 00 00    	je     403c72 <lin_solve+0x1532>
  40275e:	49 89 cc             	mov    r12,rcx
  402761:	89 fd                	mov    ebp,edi
  402763:	8d 4d 02             	lea    ecx,[rbp+0x2]
  402766:	c5 fa 6f 15 a2 aa 00 00 	vmovdqu xmm2,XMMWORD PTR [rip+0xaaa2]        # 40d210 <_IO_stdin_used+0x210>
  40276e:	c5 78 28 d8          	vmovaps xmm11,xmm0
  402772:	c5 7a 6f 35 a6 aa 00 00 	vmovdqu xmm14,XMMWORD PTR [rip+0xaaa6]        # 40d220 <_IO_stdin_used+0x220>
  40277a:	c5 fa 6f 2d 8e aa 00 00 	vmovdqu xmm5,XMMWORD PTR [rip+0xaa8e]        # 40d210 <_IO_stdin_used+0x210>
  402782:	c4 42 79 18 cb       	vbroadcastss xmm9,xmm11
  402787:	89 ca                	mov    edx,ecx
  402789:	d1 ea                	shr    edx,1
  40278b:	89 d0                	mov    eax,edx
  40278d:	0f af c1             	imul   eax,ecx
  402790:	49 8d 34 84          	lea    rsi,[r12+rax*4]
  402794:	4d 8d 34 87          	lea    r14,[r15+rax*4]
  402798:	8d 45 01             	lea    eax,[rbp+0x1]
  40279b:	48 89 74 24 48       	mov    QWORD PTR [rsp+0x48],rsi
  4027a0:	48 8d 70 ff          	lea    rsi,[rax-0x1]
  4027a4:	48 83 c0 fe          	add    rax,0xfffffffffffffffe
  4027a8:	c4 c1 f9 6e c6       	vmovq  xmm0,r14
  4027ad:	48 89 84 24 a0 00 00 00 	mov    QWORD PTR [rsp+0xa0],rax
  4027b5:	89 f0                	mov    eax,esi
  4027b7:	83 e0 03             	and    eax,0x3
  4027ba:	48 83 e6 fc          	and    rsi,0xfffffffffffffffc
  4027be:	c4 e2 7d 59 f0       	vpbroadcastq ymm6,xmm0
  4027c3:	48 89 84 24 80 00 00 00 	mov    QWORD PTR [rsp+0x80],rax
  4027cb:	8d 42 ff             	lea    eax,[rdx-0x1]
  4027ce:	48 89 b4 24 b0 00 00 00 	mov    QWORD PTR [rsp+0xb0],rsi
  4027d6:	89 d6                	mov    esi,edx
  4027d8:	48 89 44 24 58       	mov    QWORD PTR [rsp+0x58],rax
  4027dd:	83 e0 fc             	and    eax,0xfffffffc
  4027e0:	48 89 44 24 68       	mov    QWORD PTR [rsp+0x68],rax
  4027e5:	89 c8                	mov    eax,ecx
  4027e7:	83 e0 fe             	and    eax,0xfffffffe
  4027ea:	c5 f9 6e c0          	vmovd  xmm0,eax
  4027ee:	48 8d 46 ff          	lea    rax,[rsi-0x1]
  4027f2:	c4 e2 79 58 c0       	vpbroadcastd xmm0,xmm0
  4027f7:	48 89 44 24 38       	mov    QWORD PTR [rsp+0x38],rax
  4027fc:	48 83 e0 fc          	and    rax,0xfffffffffffffffc
  402800:	c5 79 fe c2          	vpaddd xmm8,xmm0,xmm2
  402804:	c5 fa 10 05 2c a8 00 00 	vmovss xmm0,DWORD PTR [rip+0xa82c]        # 40d038 <_IO_stdin_used+0x38>
  40280c:	48 89 44 24 60       	mov    QWORD PTR [rsp+0x60],rax
  402811:	89 4c 24 2c          	mov    DWORD PTR [rsp+0x2c],ecx
  402815:	89 c9                	mov    ecx,ecx
  402817:	48 d1 e9             	shr    rcx,1
  40281a:	8d 44 12 01          	lea    eax,[rdx+rdx*1+0x1]
  40281e:	48 89 8c 24 00 01 00 00 	mov    QWORD PTR [rsp+0x100],rcx
  402826:	48 ff c1             	inc    rcx
  402829:	48 89 8c 24 f8 00 00 00 	mov    QWORD PTR [rsp+0xf8],rcx
  402831:	8d 0c 12             	lea    ecx,[rdx+rdx*1]
  402834:	89 8c 24 88 00 00 00 	mov    DWORD PTR [rsp+0x88],ecx
  40283b:	8d 0c 52             	lea    ecx,[rdx+rdx*2]
  40283e:	48 89 8c 24 98 00 00 00 	mov    QWORD PTR [rsp+0x98],rcx
  402846:	48 8d 0c 36          	lea    rcx,[rsi+rsi*1]
  40284a:	48 89 8c 24 90 00 00 00 	mov    QWORD PTR [rsp+0x90],rcx
  402852:	8d 4c 52 01          	lea    ecx,[rdx+rdx*2+0x1]
  402856:	c5 fa 5e f9          	vdivss xmm7,xmm0,xmm1
  40285a:	48 89 8c 24 e0 00 00 00 	mov    QWORD PTR [rsp+0xe0],rcx
  402862:	48 8d 4e 01          	lea    rcx,[rsi+0x1]
  402866:	c5 f9 6e c0          	vmovd  xmm0,eax
  40286a:	8d 04 95 00 00 00 00 	lea    eax,[rdx*4+0x0]
  402871:	48 89 8c 24 d8 00 00 00 	mov    QWORD PTR [rsp+0xd8],rcx
  402879:	8d 0c 92             	lea    ecx,[rdx+rdx*4]
  40287c:	c4 e2 79 58 c0       	vpbroadcastd xmm0,xmm0
  402881:	c5 79 fe ea          	vpaddd xmm13,xmm0,xmm2
  402885:	c4 c1 f9 6e c7       	vmovq  xmm0,r15
  40288a:	48 89 8c 24 d0 00 00 00 	mov    QWORD PTR [rsp+0xd0],rcx
  402892:	8d 4c 92 01          	lea    ecx,[rdx+rdx*4+0x1]
  402896:	c4 62 7d 59 e0       	vpbroadcastq ymm12,xmm0
  40289b:	48 89 8c 24 c8 00 00 00 	mov    QWORD PTR [rsp+0xc8],rcx
  4028a3:	48 8d 4c 36 01       	lea    rcx,[rsi+rsi*1+0x1]
  4028a8:	48 89 74 24 78       	mov    QWORD PTR [rsp+0x78],rsi
  4028ad:	48 89 8c 24 c0 00 00 00 	mov    QWORD PTR [rsp+0xc0],rcx
  4028b5:	48 89 44 24 70       	mov    QWORD PTR [rsp+0x70],rax
  4028ba:	48 8d 40 01          	lea    rax,[rax+0x1]
  4028be:	48 89 84 24 b8 00 00 00 	mov    QWORD PTR [rsp+0xb8],rax
  4028c6:	89 9c 24 8c 00 00 00 	mov    DWORD PTR [rsp+0x8c],ebx
  4028cd:	48 89 54 24 20       	mov    QWORD PTR [rsp+0x20],rdx
  4028d2:	c5 78 11 9c 24 60 01 00 00 	vmovups XMMWORD PTR [rsp+0x160],xmm11
  4028db:	48 89 ac 24 e8 00 00 00 	mov    QWORD PTR [rsp+0xe8],rbp
  4028e3:	4c 89 a4 24 08 01 00 00 	mov    QWORD PTR [rsp+0x108],r12
  4028eb:	c5 fe 7f b4 24 90 01 00 00 	vmovdqu YMMWORD PTR [rsp+0x190],ymm6
  4028f4:	c5 7a 7f 84 24 50 01 00 00 	vmovdqu XMMWORD PTR [rsp+0x150],xmm8
  4028fd:	c5 78 11 8c 24 20 01 00 00 	vmovups XMMWORD PTR [rsp+0x120],xmm9
  402906:	31 c0                	xor    eax,eax
  402908:	48 89 d3             	mov    rbx,rdx
  40290b:	c4 62 79 18 d7       	vbroadcastss xmm10,xmm7
  402910:	c5 f8 11 bc 24 40 01 00 00 	vmovups XMMWORD PTR [rsp+0x140],xmm7
  402919:	c5 78 11 94 24 10 01 00 00 	vmovups XMMWORD PTR [rsp+0x110],xmm10
  402922:	c5 7a 7f ac 24 30 01 00 00 	vmovdqu XMMWORD PTR [rsp+0x130],xmm13
  40292b:	c5 7e 7f a4 24 70 01 00 00 	vmovdqu YMMWORD PTR [rsp+0x170],ymm12
  402934:	e9 8e 00 00 00       	jmp    4029c7 <lin_solve+0x287>
  402939:	0f 1f 80 00 00 00 00 	nop    DWORD PTR [rax+0x0]
  402940:	48 8b ac 24 e8 00 00 00 	mov    rbp,QWORD PTR [rsp+0xe8]
  402948:	8b b4 24 8c 00 00 00 	mov    esi,DWORD PTR [rsp+0x8c]
  40294f:	4c 89 fa             	mov    rdx,r15
  402952:	89 ef                	mov    edi,ebp
  402954:	c5 f8 77             	vzeroupper
  402957:	e8 14 14 00 00       	call   403d70 <set_bnd>
  40295c:	c5 f8 10 bc 24 40 01 00 00 	vmovups xmm7,XMMWORD PTR [rsp+0x140]
  402965:	c5 78 10 9c 24 60 01 00 00 	vmovups xmm11,XMMWORD PTR [rsp+0x160]
  40296e:	c5 fe 6f b4 24 90 01 00 00 	vmovdqu ymm6,YMMWORD PTR [rsp+0x190]
  402977:	c5 7a 6f 84 24 50 01 00 00 	vmovdqu xmm8,XMMWORD PTR [rsp+0x150]
  402980:	c5 78 10 8c 24 20 01 00 00 	vmovups xmm9,XMMWORD PTR [rsp+0x120]
  402989:	c5 78 10 94 24 10 01 00 00 	vmovups xmm10,XMMWORD PTR [rsp+0x110]
  402992:	c5 7a 6f ac 24 30 01 00 00 	vmovdqu xmm13,XMMWORD PTR [rsp+0x130]
  40299b:	c5 7e 6f a4 24 70 01 00 00 	vmovdqu ymm12,YMMWORD PTR [rsp+0x170]
  4029a4:	c5 7a 6f 35 74 a8 00 00 	vmovdqu xmm14,XMMWORD PTR [rip+0xa874]        # 40d220 <_IO_stdin_used+0x220>
  4029ac:	c5 fa 6f 2d 5c a8 00 00 	vmovdqu xmm5,XMMWORD PTR [rip+0xa85c]        # 40d210 <_IO_stdin_used+0x210>
  4029b4:	48 8b 84 24 f0 00 00 00 	mov    rax,QWORD PTR [rsp+0xf0]
  4029bc:	ff c0                	inc    eax
  4029be:	83 f8 14             	cmp    eax,0x14
  4029c1:	0f 84 96 12 00 00    	je     403c5d <lin_solve+0x151d>
  4029c7:	48 83 bc 24 a0 00 00 00 03 	cmp    QWORD PTR [rsp+0xa0],0x3
  4029d0:	48 89 84 24 f0 00 00 00 	mov    QWORD PTR [rsp+0xf0],rax
  4029d8:	0f 83 42 05 00 00    	jae    402f20 <lin_solve+0x7e0>
  4029de:	31 ed                	xor    ebp,ebp
  4029e0:	48 83 bc 24 80 00 00 00 00 	cmp    QWORD PTR [rsp+0x80],0x0
  4029e9:	0f 84 61 02 00 00    	je     402c50 <lin_solve+0x510>
  4029ef:	49 89 eb             	mov    r11,rbp
  4029f2:	89 d8                	mov    eax,ebx
  4029f4:	41 0f af c3          	imul   eax,r11d
  4029f8:	41 83 c3 02          	add    r11d,0x2
  4029fc:	44 8d 6d 01          	lea    r13d,[rbp+0x1]
  402a00:	31 c9                	xor    ecx,ecx
  402a02:	45 31 c9             	xor    r9d,r9d
  402a05:	44 0f af db          	imul   r11d,ebx
  402a09:	44 0f af eb          	imul   r13d,ebx
  402a0d:	4c 89 5c 24 10       	mov    QWORD PTR [rsp+0x10],r11
  402a12:	48 89 4c 24 08       	mov    QWORD PTR [rsp+0x8],rcx
  402a17:	b9 01 00 00 00       	mov    ecx,0x1
  402a1c:	49 89 c3             	mov    r11,rax
  402a1f:	48 89 0c 24          	mov    QWORD PTR [rsp],rcx
  402a23:	48 89 44 24 18       	mov    QWORD PTR [rsp+0x18],rax
  402a28:	eb 46                	jmp    402a70 <lin_solve+0x330>
  402a2a:	66 0f 1f 44 00 00    	nop    WORD PTR [rax+rax*1+0x0]
  402a30:	48 8b 04 24          	mov    rax,QWORD PTR [rsp]
  402a34:	49 ff c1             	inc    r9
  402a37:	f7 d8                	neg    eax
  402a39:	48 89 04 24          	mov    QWORD PTR [rsp],rax
  402a3d:	48 8b 5c 24 20       	mov    rbx,QWORD PTR [rsp+0x20]
  402a42:	48 8b 44 24 10       	mov    rax,QWORD PTR [rsp+0x10]
  402a47:	4c 03 5c 24 78       	add    r11,QWORD PTR [rsp+0x78]
  402a4c:	01 d8                	add    eax,ebx
  402a4e:	41 01 dd             	add    r13d,ebx
  402a51:	48 89 44 24 10       	mov    QWORD PTR [rsp+0x10],rax
  402a56:	48 8b 44 24 18       	mov    rax,QWORD PTR [rsp+0x18]
  402a5b:	01 d8                	add    eax,ebx
  402a5d:	48 89 44 24 18       	mov    QWORD PTR [rsp+0x18],rax
  402a62:	4c 3b 8c 24 80 00 00 00 	cmp    r9,QWORD PTR [rsp+0x80]
  402a6a:	0f 84 e0 01 00 00    	je     402c50 <lin_solve+0x510>
  402a70:	b8 01 00 00 00       	mov    eax,0x1
  402a75:	4c 8b 44 24 08       	mov    r8,QWORD PTR [rsp+0x8]
  402a7a:	44 29 c0             	sub    eax,r8d
  402a7d:	48 89 44 24 08       	mov    QWORD PTR [rsp+0x8],rax
  402a82:	41 8d 44 18 ff       	lea    eax,[r8+rbx*1-0x1]
  402a87:	41 39 c0             	cmp    r8d,eax
  402a8a:	73 a4                	jae    402a30 <lin_solve+0x2f0>
  402a8c:	48 8b 74 24 20       	mov    rsi,QWORD PTR [rsp+0x20]
  402a91:	44 89 c1             	mov    ecx,r8d
  402a94:	89 f0                	mov    eax,esi
  402a96:	2b 44 24 08          	sub    eax,DWORD PTR [rsp+0x8]
  402a9a:	48 89 c7             	mov    rdi,rax
  402a9d:	48 29 cf             	sub    rdi,rcx
  402aa0:	49 89 fa             	mov    r10,rdi
  402aa3:	49 83 e2 fc          	and    r10,0xfffffffffffffffc
  402aa7:	0f 84 1f 01 00 00    	je     402bcc <lin_solve+0x48c>
  402aad:	c5 fa 6f 15 5b a7 00 00 	vmovdqu xmm2,XMMWORD PTR [rip+0xa75b]        # 40d210 <_IO_stdin_used+0x210>
  402ab5:	41 8d 14 30          	lea    edx,[r8+rsi*1]
  402ab9:	c4 c1 79 6e c0       	vmovd  xmm0,r8d
  402abe:	45 01 e8             	add    r8d,r13d
  402ac1:	01 f2                	add    edx,esi
  402ac3:	c4 e2 79 58 c0       	vpbroadcastd xmm0,xmm0
  402ac8:	31 f6                	xor    esi,esi
  402aca:	c5 f9 6e ca          	vmovd  xmm1,edx
  402ace:	48 8b 14 24          	mov    rdx,QWORD PTR [rsp]
  402ad2:	c4 e2 79 58 c9       	vpbroadcastd xmm1,xmm1
  402ad7:	44 01 c2             	add    edx,r8d
  402ada:	c5 f9 fe c2          	vpaddd xmm0,xmm0,xmm2
  402ade:	c5 f1 fe ca          	vpaddd xmm1,xmm1,xmm2
  402ae2:	66 66 66 66 66 2e 0f 1f 84 00 00 00 00 00 	data16 data16 data16 data16 cs nop WORD PTR [rax+rax*1+0x0]
  402af0:	41 8d 1c 33          	lea    ebx,[r11+rsi*1]
  402af4:	c5 f9 6e d3          	vmovd  xmm2,ebx
  402af8:	c4 e2 79 58 d2       	vpbroadcastd xmm2,xmm2
  402afd:	c5 f9 fe da          	vpaddd xmm3,xmm0,xmm2
  402b01:	c5 f1 fe d2          	vpaddd xmm2,xmm1,xmm2
  402b05:	c4 e2 7d 35 db       	vpmovzxdq ymm3,xmm3
  402b0a:	c4 e2 7d 35 d2       	vpmovzxdq ymm2,xmm2
  402b0f:	c5 e5 73 f3 02       	vpsllq ymm3,ymm3,0x2
  402b14:	c5 ed 73 f2 02       	vpsllq ymm2,ymm2,0x2
  402b19:	c5 cd d4 db          	vpaddq ymm3,ymm6,ymm3
  402b1d:	c5 cd d4 d2          	vpaddq ymm2,ymm6,ymm2
  402b21:	c4 e1 f9 7e db       	vmovq  rbx,xmm3
  402b26:	c4 e3 f9 16 dd 01    	vpextrq rbp,xmm3,0x1
  402b2c:	c4 e3 7d 39 db 01    	vextracti128 xmm3,ymm3,0x1
  402b32:	c5 fa 10 23          	vmovss xmm4,DWORD PTR [rbx]
  402b36:	c4 e3 59 21 65 00 10 	vinsertps xmm4,xmm4,DWORD PTR [rbp+0x0],0x10
  402b3d:	c4 e1 f9 7e db       	vmovq  rbx,xmm3
  402b42:	c4 e3 f9 16 dd 01    	vpextrq rbp,xmm3,0x1
  402b48:	c4 e3 59 21 1b 20    	vinsertps xmm3,xmm4,DWORD PTR [rbx],0x20
  402b4e:	c4 e1 f9 7e d3       	vmovq  rbx,xmm2
  402b53:	c5 fa 10 23          	vmovss xmm4,DWORD PTR [rbx]
  402b57:	c4 e3 f9 16 d3 01    	vpextrq rbx,xmm2,0x1
  402b5d:	c4 e3 7d 39 d2 01    	vextracti128 xmm2,ymm2,0x1
  402b63:	c4 e3 61 21 5d 00 30 	vinsertps xmm3,xmm3,DWORD PTR [rbp+0x0],0x30
  402b6a:	41 8d 2c 30          	lea    ebp,[r8+rsi*1]
  402b6e:	c4 e3 59 21 23 10    	vinsertps xmm4,xmm4,DWORD PTR [rbx],0x10
  402b74:	c4 e1 f9 7e d3       	vmovq  rbx,xmm2
  402b79:	c4 e3 59 21 23 20    	vinsertps xmm4,xmm4,DWORD PTR [rbx],0x20
  402b7f:	c4 e3 f9 16 d3 01    	vpextrq rbx,xmm2,0x1
  402b85:	c4 e3 59 21 13 30    	vinsertps xmm2,xmm4,DWORD PTR [rbx],0x30
  402b8b:	8d 1c 32             	lea    ebx,[rdx+rsi*1]
  402b8e:	48 83 c6 04          	add    rsi,0x4
  402b92:	48 63 db             	movsxd rbx,ebx
  402b95:	c4 c1 68 58 14 9e    	vaddps xmm2,xmm2,XMMWORD PTR [r14+rbx*4]
  402b9b:	48 63 dd             	movsxd rbx,ebp
  402b9e:	c4 c1 60 58 1c 9e    	vaddps xmm3,xmm3,XMMWORD PTR [r14+rbx*4]
  402ba4:	c5 e8 58 d3          	vaddps xmm2,xmm2,xmm3
  402ba8:	c4 c2 31 a8 14 9c    	vfmadd213ps xmm2,xmm9,XMMWORD PTR [r12+rbx*4]
  402bae:	c5 a8 59 d2          	vmulps xmm2,xmm10,xmm2
  402bb2:	c4 c1 78 11 14 9f    	vmovups XMMWORD PTR [r15+rbx*4],xmm2
  402bb8:	4c 39 d6             	cmp    rsi,r10
  402bbb:	0f 8c 2f ff ff ff    	jl     402af0 <lin_solve+0x3b0>
  402bc1:	4c 39 d7             	cmp    rdi,r10
  402bc4:	0f 84 66 fe ff ff    	je     402a30 <lin_solve+0x2f0>
  402bca:	eb 03                	jmp    402bcf <lin_solve+0x48f>
  402bcc:	45 31 d2             	xor    r10d,r10d
  402bcf:	48 8b 54 24 10       	mov    rdx,QWORD PTR [rsp+0x10]
  402bd4:	8b 34 24             	mov    esi,DWORD PTR [rsp]
  402bd7:	4c 29 d0             	sub    rax,r10
  402bda:	43 8d 6c 15 00       	lea    ebp,[r13+r10*1+0x0]
  402bdf:	44 01 d2             	add    edx,r10d
  402be2:	44 03 54 24 18       	add    r10d,DWORD PTR [rsp+0x18]
  402be7:	48 01 ce             	add    rsi,rcx
  402bea:	66 0f 1f 44 00 00    	nop    WORD PTR [rax+rax*1+0x0]
  402bf0:	41 8d 3c 0a          	lea    edi,[r10+rcx*1]
  402bf4:	44 8d 04 2e          	lea    r8d,[rsi+rbp*1]
  402bf8:	8d 1c 29             	lea    ebx,[rcx+rbp*1]
  402bfb:	48 ff c8             	dec    rax
  402bfe:	48 ff c5             	inc    rbp
  402c01:	49 ff c2             	inc    r10
  402c04:	c4 c1 7a 10 04 be    	vmovss xmm0,DWORD PTR [r14+rdi*4]
  402c0a:	49 63 f8             	movsxd rdi,r8d
  402c0d:	48 63 db             	movsxd rbx,ebx
  402c10:	c4 c1 7a 10 0c be    	vmovss xmm1,DWORD PTR [r14+rdi*4]
  402c16:	8d 3c 0a             	lea    edi,[rdx+rcx*1]
  402c19:	c4 c1 7a 58 04 9e    	vaddss xmm0,xmm0,DWORD PTR [r14+rbx*4]
  402c1f:	48 ff c2             	inc    rdx
  402c22:	c4 c1 72 58 0c be    	vaddss xmm1,xmm1,DWORD PTR [r14+rdi*4]
  402c28:	c5 f2 58 c0          	vaddss xmm0,xmm1,xmm0
  402c2c:	c4 c2 21 a9 04 9c    	vfmadd213ss xmm0,xmm11,DWORD PTR [r12+rbx*4]
  402c32:	c5 fa 59 c7          	vmulss xmm0,xmm0,xmm7
  402c36:	c4 c1 7a 11 04 9f    	vmovss DWORD PTR [r15+rbx*4],xmm0
  402c3c:	48 39 c1             	cmp    rcx,rax
  402c3f:	75 af                	jne    402bf0 <lin_solve+0x4b0>
  402c41:	e9 ea fd ff ff       	jmp    402a30 <lin_solve+0x2f0>
  402c46:	66 2e 0f 1f 84 00 00 00 00 00 	cs nop WORD PTR [rax+rax*1+0x0]
  402c50:	48 83 bc 24 a0 00 00 00 03 	cmp    QWORD PTR [rsp+0xa0],0x3
  402c59:	0f 83 91 09 00 00    	jae    4035f0 <lin_solve+0xeb0>
  402c5f:	31 c0                	xor    eax,eax
  402c61:	48 89 44 24 10       	mov    QWORD PTR [rsp+0x10],rax
  402c66:	48 83 bc 24 80 00 00 00 00 	cmp    QWORD PTR [rsp+0x80],0x0
  402c6f:	48 8b 5c 24 20       	mov    rbx,QWORD PTR [rsp+0x20]
  402c74:	0f 84 c6 fc ff ff    	je     402940 <lin_solve+0x200>
  402c7a:	48 8b 44 24 10       	mov    rax,QWORD PTR [rsp+0x10]
  402c7f:	41 89 db             	mov    r11d,ebx
  402c82:	45 31 d2             	xor    r10d,r10d
  402c85:	8d 48 01             	lea    ecx,[rax+0x1]
  402c88:	44 0f af d8          	imul   r11d,eax
  402c8c:	83 c0 02             	add    eax,0x2
  402c8f:	0f af cb             	imul   ecx,ebx
  402c92:	0f af c3             	imul   eax,ebx
  402c95:	48 89 0c 24          	mov    QWORD PTR [rsp],rcx
  402c99:	48 89 44 24 10       	mov    QWORD PTR [rsp+0x10],rax
  402c9e:	b8 ff ff ff ff       	mov    eax,0xffffffff
  402ca3:	c7 44 24 18 01 00 00 00 	mov    DWORD PTR [rsp+0x18],0x1
  402cab:	48 89 44 24 08       	mov    QWORD PTR [rsp+0x8],rax
  402cb0:	4c 89 5c 24 40       	mov    QWORD PTR [rsp+0x40],r11
  402cb5:	c5 f8 10 b4 24 20 01 00 00 	vmovups xmm6,XMMWORD PTR [rsp+0x120]
  402cbe:	c5 f8 10 ac 24 10 01 00 00 	vmovups xmm5,XMMWORD PTR [rsp+0x110]
  402cc7:	c5 7e 6f 84 24 70 01 00 00 	vmovdqu ymm8,YMMWORD PTR [rsp+0x170]
  402cd0:	eb 57                	jmp    402d29 <lin_solve+0x5e9>
  402cd2:	66 66 66 66 66 2e 0f 1f 84 00 00 00 00 00 	data16 data16 data16 data16 cs nop WORD PTR [rax+rax*1+0x0]
  402ce0:	48 8b 44 24 08       	mov    rax,QWORD PTR [rsp+0x8]
  402ce5:	49 ff c2             	inc    r10
  402ce8:	f7 d8                	neg    eax
  402cea:	48 89 44 24 08       	mov    QWORD PTR [rsp+0x8],rax
  402cef:	48 8b 5c 24 20       	mov    rbx,QWORD PTR [rsp+0x20]
  402cf4:	48 8b 04 24          	mov    rax,QWORD PTR [rsp]
  402cf8:	4c 03 5c 24 78       	add    r11,QWORD PTR [rsp+0x78]
  402cfd:	01 d8                	add    eax,ebx
  402cff:	48 89 04 24          	mov    QWORD PTR [rsp],rax
  402d03:	48 8b 44 24 10       	mov    rax,QWORD PTR [rsp+0x10]
  402d08:	01 d8                	add    eax,ebx
  402d0a:	48 89 44 24 10       	mov    QWORD PTR [rsp+0x10],rax
  402d0f:	48 8b 44 24 40       	mov    rax,QWORD PTR [rsp+0x40]
  402d14:	01 d8                	add    eax,ebx
  402d16:	48 89 44 24 40       	mov    QWORD PTR [rsp+0x40],rax
  402d1b:	4c 3b 94 24 80 00 00 00 	cmp    r10,QWORD PTR [rsp+0x80]
  402d23:	0f 84 17 fc ff ff    	je     402940 <lin_solve+0x200>
  402d29:	8b 44 24 18          	mov    eax,DWORD PTR [rsp+0x18]
  402d2d:	ba 01 00 00 00       	mov    edx,0x1
  402d32:	41 89 c1             	mov    r9d,eax
  402d35:	41 8d 4c 19 ff       	lea    ecx,[r9+rbx*1-0x1]
  402d3a:	44 29 ca             	sub    edx,r9d
  402d3d:	89 54 24 18          	mov    DWORD PTR [rsp+0x18],edx
  402d41:	41 39 c9             	cmp    r9d,ecx
  402d44:	73 9a                	jae    402ce0 <lin_solve+0x5a0>
  402d46:	48 8b 74 24 20       	mov    rsi,QWORD PTR [rsp+0x20]
  402d4b:	44 89 c9             	mov    ecx,r9d
  402d4e:	89 f0                	mov    eax,esi
  402d50:	2b 44 24 18          	sub    eax,DWORD PTR [rsp+0x18]
  402d54:	48 89 c2             	mov    rdx,rax
  402d57:	48 29 ca             	sub    rdx,rcx
  402d5a:	49 89 d0             	mov    r8,rdx
  402d5d:	49 83 e0 fc          	and    r8,0xfffffffffffffffc
  402d61:	0f 84 28 01 00 00    	je     402e8f <lin_solve+0x74f>
  402d67:	c5 fa 6f 15 a1 a4 00 00 	vmovdqu xmm2,XMMWORD PTR [rip+0xa4a1]        # 40d210 <_IO_stdin_used+0x210>
  402d6f:	48 89 54 24 30       	mov    QWORD PTR [rsp+0x30],rdx
  402d74:	42 8d 14 0e          	lea    edx,[rsi+r9*1]
  402d78:	c4 c1 79 6e c1       	vmovd  xmm0,r9d
  402d7d:	31 ff                	xor    edi,edi
  402d7f:	01 f2                	add    edx,esi
  402d81:	44 03 0c 24          	add    r9d,DWORD PTR [rsp]
  402d85:	4c 8b 6c 24 48       	mov    r13,QWORD PTR [rsp+0x48]
  402d8a:	c4 e2 79 58 c0       	vpbroadcastd xmm0,xmm0
  402d8f:	c5 f9 6e ca          	vmovd  xmm1,edx
  402d93:	48 8b 54 24 08       	mov    rdx,QWORD PTR [rsp+0x8]
  402d98:	c4 e2 79 58 c9       	vpbroadcastd xmm1,xmm1
  402d9d:	44 01 ca             	add    edx,r9d
  402da0:	c5 f9 fe c2          	vpaddd xmm0,xmm0,xmm2
  402da4:	c5 f1 fe ca          	vpaddd xmm1,xmm1,xmm2
  402da8:	0f 1f 84 00 00 00 00 00 	nop    DWORD PTR [rax+rax*1+0x0]
  402db0:	41 8d 1c 3b          	lea    ebx,[r11+rdi*1]
  402db4:	41 8d 34 39          	lea    esi,[r9+rdi*1]
  402db8:	c5 f9 6e d3          	vmovd  xmm2,ebx
  402dbc:	c4 e2 79 58 d2       	vpbroadcastd xmm2,xmm2
  402dc1:	c5 f9 fe da          	vpaddd xmm3,xmm0,xmm2
  402dc5:	c5 f1 fe d2          	vpaddd xmm2,xmm1,xmm2
  402dc9:	c4 e2 7d 35 db       	vpmovzxdq ymm3,xmm3
  402dce:	c4 e2 7d 35 d2       	vpmovzxdq ymm2,xmm2
  402dd3:	c5 e5 73 f3 02       	vpsllq ymm3,ymm3,0x2
  402dd8:	c5 ed 73 f2 02       	vpsllq ymm2,ymm2,0x2
  402ddd:	c5 bd d4 db          	vpaddq ymm3,ymm8,ymm3
  402de1:	c5 bd d4 d2          	vpaddq ymm2,ymm8,ymm2
  402de5:	c4 e1 f9 7e db       	vmovq  rbx,xmm3
  402dea:	c4 e3 f9 16 dd 01    	vpextrq rbp,xmm3,0x1
  402df0:	c4 e3 7d 39 db 01    	vextracti128 xmm3,ymm3,0x1
  402df6:	c5 fa 10 23          	vmovss xmm4,DWORD PTR [rbx]
  402dfa:	c4 e3 59 21 65 00 10 	vinsertps xmm4,xmm4,DWORD PTR [rbp+0x0],0x10
  402e01:	c4 e1 f9 7e db       	vmovq  rbx,xmm3
  402e06:	c4 e3 f9 16 dd 01    	vpextrq rbp,xmm3,0x1
  402e0c:	c4 e3 59 21 1b 20    	vinsertps xmm3,xmm4,DWORD PTR [rbx],0x20
  402e12:	c4 e1 f9 7e d3       	vmovq  rbx,xmm2
  402e17:	c5 fa 10 23          	vmovss xmm4,DWORD PTR [rbx]
  402e1b:	c4 e3 f9 16 d3 01    	vpextrq rbx,xmm2,0x1
  402e21:	c4 e3 7d 39 d2 01    	vextracti128 xmm2,ymm2,0x1
  402e27:	c4 e3 61 21 5d 00 30 	vinsertps xmm3,xmm3,DWORD PTR [rbp+0x0],0x30
  402e2e:	8d 2c 3a             	lea    ebp,[rdx+rdi*1]
  402e31:	48 83 c7 04          	add    rdi,0x4
  402e35:	c4 e3 59 21 23 10    	vinsertps xmm4,xmm4,DWORD PTR [rbx],0x10
  402e3b:	c4 e1 f9 7e d3       	vmovq  rbx,xmm2
  402e40:	c4 e3 59 21 23 20    	vinsertps xmm4,xmm4,DWORD PTR [rbx],0x20
  402e46:	c4 e3 f9 16 d3 01    	vpextrq rbx,xmm2,0x1
  402e4c:	c4 e3 59 21 13 30    	vinsertps xmm2,xmm4,DWORD PTR [rbx],0x30
  402e52:	48 63 dd             	movsxd rbx,ebp
  402e55:	c4 c1 68 58 14 9f    	vaddps xmm2,xmm2,XMMWORD PTR [r15+rbx*4]
  402e5b:	48 63 de             	movsxd rbx,esi
  402e5e:	c4 c1 60 58 1c 9f    	vaddps xmm3,xmm3,XMMWORD PTR [r15+rbx*4]
  402e64:	c5 e8 58 d3          	vaddps xmm2,xmm2,xmm3
  402e68:	c4 c2 49 a8 54 9d 00 	vfmadd213ps xmm2,xmm6,XMMWORD PTR [r13+rbx*4+0x0]
  402e6f:	c5 e8 59 d5          	vmulps xmm2,xmm2,xmm5
  402e73:	c4 c1 78 11 14 9e    	vmovups XMMWORD PTR [r14+rbx*4],xmm2
  402e79:	4c 39 c7             	cmp    rdi,r8
  402e7c:	0f 8c 2e ff ff ff    	jl     402db0 <lin_solve+0x670>
  402e82:	4c 39 44 24 30       	cmp    QWORD PTR [rsp+0x30],r8
  402e87:	0f 84 53 fe ff ff    	je     402ce0 <lin_solve+0x5a0>
  402e8d:	eb 08                	jmp    402e97 <lin_solve+0x757>
  402e8f:	4c 8b 6c 24 48       	mov    r13,QWORD PTR [rsp+0x48]
  402e94:	45 31 c0             	xor    r8d,r8d
  402e97:	48 8b 54 24 10       	mov    rdx,QWORD PTR [rsp+0x10]
  402e9c:	48 8b 34 24          	mov    rsi,QWORD PTR [rsp]
  402ea0:	8b 7c 24 08          	mov    edi,DWORD PTR [rsp+0x8]
  402ea4:	4c 29 c0             	sub    rax,r8
  402ea7:	44 01 c2             	add    edx,r8d
  402eaa:	42 8d 2c 06          	lea    ebp,[rsi+r8*1]
  402eae:	44 03 44 24 40       	add    r8d,DWORD PTR [rsp+0x40]
  402eb3:	48 01 cf             	add    rdi,rcx
  402eb6:	66 2e 0f 1f 84 00 00 00 00 00 	cs nop WORD PTR [rax+rax*1+0x0]
  402ec0:	41 8d 34 08          	lea    esi,[r8+rcx*1]
  402ec4:	44 8d 0c 2f          	lea    r9d,[rdi+rbp*1]
  402ec8:	8d 1c 29             	lea    ebx,[rcx+rbp*1]
  402ecb:	48 ff c8             	dec    rax
  402ece:	48 ff c5             	inc    rbp
  402ed1:	49 ff c0             	inc    r8
  402ed4:	c4 c1 7a 10 04 b7    	vmovss xmm0,DWORD PTR [r15+rsi*4]
  402eda:	49 63 f1             	movsxd rsi,r9d
  402edd:	48 63 db             	movsxd rbx,ebx
  402ee0:	c4 c1 7a 10 0c b7    	vmovss xmm1,DWORD PTR [r15+rsi*4]
  402ee6:	8d 34 0a             	lea    esi,[rdx+rcx*1]
  402ee9:	c4 c1 7a 58 04 9f    	vaddss xmm0,xmm0,DWORD PTR [r15+rbx*4]
  402eef:	48 ff c2             	inc    rdx
  402ef2:	c4 c1 72 58 0c b7    	vaddss xmm1,xmm1,DWORD PTR [r15+rsi*4]
  402ef8:	c5 f2 58 c0          	vaddss xmm0,xmm1,xmm0
  402efc:	c4 c2 21 a9 44 9d 00 	vfmadd213ss xmm0,xmm11,DWORD PTR [r13+rbx*4+0x0]
  402f03:	c5 fa 59 c7          	vmulss xmm0,xmm0,xmm7
  402f07:	c4 c1 7a 11 04 9e    	vmovss DWORD PTR [r14+rbx*4],xmm0
  402f0d:	48 39 c1             	cmp    rcx,rax
  402f10:	75 ae                	jne    402ec0 <lin_solve+0x780>
  402f12:	e9 c9 fd ff ff       	jmp    402ce0 <lin_solve+0x5a0>
  402f17:	66 0f 1f 84 00 00 00 00 00 	nop    WORD PTR [rax+rax*1+0x0]
  402f20:	48 8b 84 24 c8 00 00 00 	mov    rax,QWORD PTR [rsp+0xc8]
  402f28:	41 89 db             	mov    r11d,ebx
  402f2b:	31 f6                	xor    esi,esi
  402f2d:	31 ed                	xor    ebp,ebp
  402f2f:	48 89 44 24 30       	mov    QWORD PTR [rsp+0x30],rax
  402f34:	48 8b 84 24 d8 00 00 00 	mov    rax,QWORD PTR [rsp+0xd8]
  402f3c:	4c 8b 54 24 70       	mov    r10,QWORD PTR [rsp+0x70]
  402f41:	48 8b bc 24 98 00 00 00 	mov    rdi,QWORD PTR [rsp+0x98]
  402f49:	48 89 84 24 a8 00 00 00 	mov    QWORD PTR [rsp+0xa8],rax
  402f51:	48 8b 8c 24 e0 00 00 00 	mov    rcx,QWORD PTR [rsp+0xe0]
  402f59:	48 8b 54 24 78       	mov    rdx,QWORD PTR [rsp+0x78]
  402f5e:	4c 8b 84 24 90 00 00 00 	mov    r8,QWORD PTR [rsp+0x90]
  402f66:	8b 84 24 88 00 00 00 	mov    eax,DWORD PTR [rsp+0x88]
  402f6d:	48 89 44 24 08       	mov    QWORD PTR [rsp+0x8],rax
  402f72:	eb 6c                	jmp    402fe0 <lin_solve+0x8a0>
  402f74:	66 66 66 2e 0f 1f 84 00 00 00 00 00 	data16 data16 cs nop WORD PTR [rax+rax*1+0x0]
  402f80:	48 8b 44 24 70       	mov    rax,QWORD PTR [rsp+0x70]
  402f85:	48 8b 4c 24 08       	mov    rcx,QWORD PTR [rsp+0x8]
  402f8a:	48 8b 6c 24 10       	mov    rbp,QWORD PTR [rsp+0x10]
  402f8f:	48 8b 74 24 18       	mov    rsi,QWORD PTR [rsp+0x18]
  402f94:	01 c1                	add    ecx,eax
  402f96:	49 01 c5             	add    r13,rax
  402f99:	48 83 c5 04          	add    rbp,0x4
  402f9d:	48 01 c6             	add    rsi,rax
  402fa0:	41 01 c3             	add    r11d,eax
  402fa3:	49 01 c0             	add    r8,rax
  402fa6:	49 01 c2             	add    r10,rax
  402fa9:	48 89 4c 24 08       	mov    QWORD PTR [rsp+0x8],rcx
  402fae:	4c 89 ef             	mov    rdi,r13
  402fb1:	48 8b 54 24 40       	mov    rdx,QWORD PTR [rsp+0x40]
  402fb6:	48 8b 0c 24          	mov    rcx,QWORD PTR [rsp]
  402fba:	48 01 84 24 a8 00 00 00 	add    QWORD PTR [rsp+0xa8],rax
  402fc2:	48 01 44 24 30       	add    QWORD PTR [rsp+0x30],rax
  402fc7:	48 8b 5c 24 20       	mov    rbx,QWORD PTR [rsp+0x20]
  402fcc:	48 01 c2             	add    rdx,rax
  402fcf:	48 01 c1             	add    rcx,rax
  402fd2:	48 3b ac 24 b0 00 00 00 	cmp    rbp,QWORD PTR [rsp+0xb0]
  402fda:	0f 84 00 fa ff ff    	je     4029e0 <lin_solve+0x2a0>
  402fe0:	48 89 6c 24 10       	mov    QWORD PTR [rsp+0x10],rbp
  402fe5:	48 89 74 24 18       	mov    QWORD PTR [rsp+0x18],rsi
  402fea:	48 89 54 24 40       	mov    QWORD PTR [rsp+0x40],rdx
  402fef:	48 89 0c 24          	mov    QWORD PTR [rsp],rcx
  402ff3:	49 89 fd             	mov    r13,rdi
  402ff6:	83 fb 01             	cmp    ebx,0x1
  402ff9:	0f 84 73 01 00 00    	je     403172 <lin_solve+0xa32>
  402fff:	48 83 7c 24 68 00    	cmp    QWORD PTR [rsp+0x68],0x0
  403005:	0f 84 01 01 00 00    	je     40310c <lin_solve+0x9cc>
  40300b:	48 8b 84 24 f8 00 00 00 	mov    rax,QWORD PTR [rsp+0xf8]
  403013:	48 8b 5c 24 18       	mov    rbx,QWORD PTR [rsp+0x18]
  403018:	48 8b 8c 24 00 01 00 00 	mov    rcx,QWORD PTR [rsp+0x100]
  403020:	48 8b 54 24 68       	mov    rdx,QWORD PTR [rsp+0x68]
  403025:	31 f6                	xor    esi,esi
  403027:	48 8d 3c 18          	lea    rdi,[rax+rbx*1]
  40302b:	48 01 d9             	add    rcx,rbx
  40302e:	66 90                	xchg   ax,ax
  403030:	8d 04 33             	lea    eax,[rbx+rsi*1]
  403033:	44 8d 0c 31          	lea    r9d,[rcx+rsi*1]
  403037:	c5 f9 6e c0          	vmovd  xmm0,eax
  40303b:	c4 e2 79 58 c0       	vpbroadcastd xmm0,xmm0
  403040:	c5 f9 eb cd          	vpor   xmm1,xmm0,xmm5
  403044:	c5 b9 fe c0          	vpaddd xmm0,xmm8,xmm0
  403048:	c4 e2 7d 35 c9       	vpmovzxdq ymm1,xmm1
  40304d:	c4 e2 7d 35 c0       	vpmovzxdq ymm0,xmm0
  403052:	c5 f5 73 f1 02       	vpsllq ymm1,ymm1,0x2
  403057:	c5 fd 73 f0 02       	vpsllq ymm0,ymm0,0x2
  40305c:	c5 cd d4 c9          	vpaddq ymm1,ymm6,ymm1
  403060:	c5 cd d4 c0          	vpaddq ymm0,ymm6,ymm0
  403064:	c4 e1 f9 7e c8       	vmovq  rax,xmm1
  403069:	c4 e3 f9 16 cd 01    	vpextrq rbp,xmm1,0x1
  40306f:	c4 e3 7d 39 c9 01    	vextracti128 xmm1,ymm1,0x1
  403075:	c5 fa 10 10          	vmovss xmm2,DWORD PTR [rax]
  403079:	c4 e3 69 21 55 00 10 	vinsertps xmm2,xmm2,DWORD PTR [rbp+0x0],0x10
  403080:	c4 e1 f9 7e c8       	vmovq  rax,xmm1
  403085:	c4 e3 f9 16 cd 01    	vpextrq rbp,xmm1,0x1
  40308b:	c4 e3 69 21 08 20    	vinsertps xmm1,xmm2,DWORD PTR [rax],0x20
  403091:	c4 e1 f9 7e c0       	vmovq  rax,xmm0
  403096:	c5 fa 10 10          	vmovss xmm2,DWORD PTR [rax]
  40309a:	c4 e3 f9 16 c0 01    	vpextrq rax,xmm0,0x1
  4030a0:	c4 e3 7d 39 c0 01    	vextracti128 xmm0,ymm0,0x1
  4030a6:	c4 e3 71 21 4d 00 30 	vinsertps xmm1,xmm1,DWORD PTR [rbp+0x0],0x30
  4030ad:	8d 2c 37             	lea    ebp,[rdi+rsi*1]
  4030b0:	48 83 c6 04          	add    rsi,0x4
  4030b4:	c4 e3 69 21 10 10    	vinsertps xmm2,xmm2,DWORD PTR [rax],0x10
  4030ba:	c4 e1 f9 7e c0       	vmovq  rax,xmm0
  4030bf:	c4 e3 69 21 10 20    	vinsertps xmm2,xmm2,DWORD PTR [rax],0x20
  4030c5:	c4 e3 f9 16 c0 01    	vpextrq rax,xmm0,0x1
  4030cb:	c4 e3 69 21 00 30    	vinsertps xmm0,xmm2,DWORD PTR [rax],0x30
  4030d1:	48 63 c5             	movsxd rax,ebp
  4030d4:	c4 c1 78 58 04 86    	vaddps xmm0,xmm0,XMMWORD PTR [r14+rax*4]
  4030da:	49 63 c1             	movsxd rax,r9d
  4030dd:	c4 c1 70 58 0c 86    	vaddps xmm1,xmm1,XMMWORD PTR [r14+rax*4]
  4030e3:	c5 f8 58 c1          	vaddps xmm0,xmm0,xmm1
  4030e7:	c4 c2 31 a8 04 84    	vfmadd213ps xmm0,xmm9,XMMWORD PTR [r12+rax*4]
  4030ed:	c5 a8 59 c0          	vmulps xmm0,xmm10,xmm0
  4030f1:	c4 c1 78 11 04 87    	vmovups XMMWORD PTR [r15+rax*4],xmm0
  4030f7:	48 39 d6             	cmp    rsi,rdx
  4030fa:	0f 82 30 ff ff ff    	jb     403030 <lin_solve+0x8f0>
  403100:	48 89 d1             	mov    rcx,rdx
  403103:	48 3b 54 24 58       	cmp    rdx,QWORD PTR [rsp+0x58]
  403108:	75 04                	jne    40310e <lin_solve+0x9ce>
  40310a:	eb 66                	jmp    403172 <lin_solve+0xa32>
  40310c:	31 c9                	xor    ecx,ecx
  40310e:	48 8b 44 24 18       	mov    rax,QWORD PTR [rsp+0x18]
  403113:	4c 8b 4c 24 58       	mov    r9,QWORD PTR [rsp+0x58]
  403118:	48 8b 54 24 08       	mov    rdx,QWORD PTR [rsp+0x8]
  40311d:	31 ed                	xor    ebp,ebp
  40311f:	8d 34 08             	lea    esi,[rax+rcx*1]
  403122:	49 29 c9             	sub    r9,rcx
  403125:	8d 3c 0a             	lea    edi,[rdx+rcx*1]
  403128:	44 01 d9             	add    ecx,r11d
  40312b:	49 8d 34 b6          	lea    rsi,[r14+rsi*4]
  40312f:	90                   	nop
  403130:	8d 44 29 01          	lea    eax,[rcx+rbp*1+0x1]
  403134:	8d 14 29             	lea    edx,[rcx+rbp*1]
  403137:	c5 fa 10 04 ae       	vmovss xmm0,DWORD PTR [rsi+rbp*4]
  40313c:	48 63 d2             	movsxd rdx,edx
  40313f:	48 98                	cdqe
  403141:	c4 c1 7a 58 04 96    	vaddss xmm0,xmm0,DWORD PTR [r14+rdx*4]
  403147:	c4 c1 7a 10 0c 86    	vmovss xmm1,DWORD PTR [r14+rax*4]
  40314d:	8d 04 2f             	lea    eax,[rdi+rbp*1]
  403150:	48 ff c5             	inc    rbp
  403153:	c4 c1 72 58 0c 86    	vaddss xmm1,xmm1,DWORD PTR [r14+rax*4]
  403159:	c5 f2 58 c0          	vaddss xmm0,xmm1,xmm0
  40315d:	c4 c2 21 a9 04 94    	vfmadd213ss xmm0,xmm11,DWORD PTR [r12+rdx*4]
  403163:	c5 fa 59 c7          	vmulss xmm0,xmm0,xmm7
  403167:	c4 c1 7a 11 04 97    	vmovss DWORD PTR [r15+rdx*4],xmm0
  40316d:	49 39 e9             	cmp    r9,rbp
  403170:	75 be                	jne    403130 <lin_solve+0x9f0>
  403172:	83 7c 24 2c 04       	cmp    DWORD PTR [rsp+0x2c],0x4
  403177:	0f 82 77 01 00 00    	jb     4032f4 <lin_solve+0xbb4>
  40317d:	4c 8b 4c 24 60       	mov    r9,QWORD PTR [rsp+0x60]
  403182:	4d 85 c9             	test   r9,r9
  403185:	0f 84 f8 00 00 00    	je     403283 <lin_solve+0xb43>
  40318b:	44 89 5c 24 54       	mov    DWORD PTR [rsp+0x54],r11d
  403190:	31 c9                	xor    ecx,ecx
  403192:	4c 8b 5c 24 40       	mov    r11,QWORD PTR [rsp+0x40]
  403197:	66 0f 1f 84 00 00 00 00 00 	nop    WORD PTR [rax+rax*1+0x0]
  4031a0:	41 8d 14 0b          	lea    edx,[r11+rcx*1]
  4031a4:	41 8d 34 08          	lea    esi,[r8+rcx*1]
  4031a8:	41 8d 44 08 01       	lea    eax,[r8+rcx*1+0x1]
  4031ad:	48 83 c1 04          	add    rcx,0x4
  4031b1:	c5 f9 6e c2          	vmovd  xmm0,edx
  4031b5:	c4 e2 79 58 c0       	vpbroadcastd xmm0,xmm0
  4031ba:	48 98                	cdqe
  4031bc:	c5 89 fe c8          	vpaddd xmm1,xmm14,xmm0
  4031c0:	c5 91 fe c0          	vpaddd xmm0,xmm13,xmm0
  4031c4:	c4 e2 7d 35 c9       	vpmovzxdq ymm1,xmm1
  4031c9:	c4 e2 7d 35 c0       	vpmovzxdq ymm0,xmm0
  4031ce:	c5 f5 73 f1 02       	vpsllq ymm1,ymm1,0x2
  4031d3:	c5 fd 73 f0 02       	vpsllq ymm0,ymm0,0x2
  4031d8:	c5 cd d4 c9          	vpaddq ymm1,ymm6,ymm1
  4031dc:	c5 cd d4 c0          	vpaddq ymm0,ymm6,ymm0
  4031e0:	c4 e1 f9 7e ca       	vmovq  rdx,xmm1
  4031e5:	c4 e3 f9 16 cf 01    	vpextrq rdi,xmm1,0x1
  4031eb:	c4 e3 7d 39 c9 01    	vextracti128 xmm1,ymm1,0x1
  4031f1:	c4 e3 f9 16 cd 01    	vpextrq rbp,xmm1,0x1
  4031f7:	c4 e1 f9 7e cb       	vmovq  rbx,xmm1
  4031fc:	c5 fa 10 0a          	vmovss xmm1,DWORD PTR [rdx]
  403200:	48 63 d6             	movsxd rdx,esi
  403203:	c4 e1 f9 7e c6       	vmovq  rsi,xmm0
  403208:	c4 e3 71 21 0f 10    	vinsertps xmm1,xmm1,DWORD PTR [rdi],0x10
  40320e:	c4 e3 f9 16 c7 01    	vpextrq rdi,xmm0,0x1
  403214:	c4 e3 7d 39 c0 01    	vextracti128 xmm0,ymm0,0x1
  40321a:	c4 e3 71 21 0b 20    	vinsertps xmm1,xmm1,DWORD PTR [rbx],0x20
  403220:	c4 e3 71 21 4d 00 30 	vinsertps xmm1,xmm1,DWORD PTR [rbp+0x0],0x30
  403227:	c4 c1 70 58 0c 86    	vaddps xmm1,xmm1,XMMWORD PTR [r14+rax*4]
  40322d:	c4 e1 f9 7e c5       	vmovq  rbp,xmm0
  403232:	c4 e3 f9 16 c3 01    	vpextrq rbx,xmm0,0x1
  403238:	c5 fa 10 06          	vmovss xmm0,DWORD PTR [rsi]
  40323c:	c4 e3 79 21 07 10    	vinsertps xmm0,xmm0,DWORD PTR [rdi],0x10
  403242:	c4 e3 79 21 45 00 20 	vinsertps xmm0,xmm0,DWORD PTR [rbp+0x0],0x20
  403249:	c4 e3 79 21 03 30    	vinsertps xmm0,xmm0,DWORD PTR [rbx],0x30
  40324f:	c4 c1 78 58 04 96    	vaddps xmm0,xmm0,XMMWORD PTR [r14+rdx*4]
  403255:	c5 f8 58 c1          	vaddps xmm0,xmm0,xmm1
  403259:	c4 c2 31 a8 04 84    	vfmadd213ps xmm0,xmm9,XMMWORD PTR [r12+rax*4]
  40325f:	c5 a8 59 c0          	vmulps xmm0,xmm10,xmm0
  403263:	c4 c1 78 11 04 87    	vmovups XMMWORD PTR [r15+rax*4],xmm0
  403269:	4c 39 c9             	cmp    rcx,r9
  40326c:	0f 8c 2e ff ff ff    	jl     4031a0 <lin_solve+0xa60>
  403272:	44 8b 5c 24 54       	mov    r11d,DWORD PTR [rsp+0x54]
  403277:	4c 89 c8             	mov    rax,r9
  40327a:	4c 39 4c 24 38       	cmp    QWORD PTR [rsp+0x38],r9
  40327f:	75 05                	jne    403286 <lin_solve+0xb46>
  403281:	eb 71                	jmp    4032f4 <lin_solve+0xbb4>
  403283:	45 31 c9             	xor    r9d,r9d
  403286:	48 8b b4 24 a8 00 00 00 	mov    rsi,QWORD PTR [rsp+0xa8]
  40328e:	48 8b 3c 24          	mov    rdi,QWORD PTR [rsp]
  403292:	48 8b 6c 24 38       	mov    rbp,QWORD PTR [rsp+0x38]
  403297:	4c 89 c0             	mov    rax,r8
  40329a:	66 0f 1f 44 00 00    	nop    WORD PTR [rax+rax*1+0x0]
  4032a0:	41 8d 54 01 01       	lea    edx,[r9+rax*1+0x1]
  4032a5:	42 8d 0c 0e          	lea    ecx,[rsi+r9*1]
  4032a9:	41 8d 1c 01          	lea    ebx,[r9+rax*1]
  4032ad:	48 ff cd             	dec    rbp
  4032b0:	48 ff c0             	inc    rax
  4032b3:	48 ff c6             	inc    rsi
  4032b6:	c4 c1 7a 10 04 8e    	vmovss xmm0,DWORD PTR [r14+rcx*4]
  4032bc:	48 63 cb             	movsxd rcx,ebx
  4032bf:	48 63 d2             	movsxd rdx,edx
  4032c2:	c4 c1 7a 10 0c 8e    	vmovss xmm1,DWORD PTR [r14+rcx*4]
  4032c8:	42 8d 0c 0f          	lea    ecx,[rdi+r9*1]
  4032cc:	48 ff c7             	inc    rdi
  4032cf:	c4 c1 7a 58 04 96    	vaddss xmm0,xmm0,DWORD PTR [r14+rdx*4]
  4032d5:	c4 c1 72 58 0c 8e    	vaddss xmm1,xmm1,DWORD PTR [r14+rcx*4]
  4032db:	c5 f2 58 c0          	vaddss xmm0,xmm1,xmm0
  4032df:	c4 c2 21 a9 04 94    	vfmadd213ss xmm0,xmm11,DWORD PTR [r12+rdx*4]
  4032e5:	c5 fa 59 c7          	vmulss xmm0,xmm0,xmm7
  4032e9:	c4 c1 7a 11 04 97    	vmovss DWORD PTR [r15+rdx*4],xmm0
  4032ef:	49 39 e9             	cmp    r9,rbp
  4032f2:	75 ac                	jne    4032a0 <lin_solve+0xb60>
  4032f4:	83 7c 24 20 01       	cmp    DWORD PTR [rsp+0x20],0x1
  4032f9:	45 89 d1             	mov    r9d,r10d
  4032fc:	0f 84 61 01 00 00    	je     403463 <lin_solve+0xd23>
  403302:	48 8b 74 24 68       	mov    rsi,QWORD PTR [rsp+0x68]
  403307:	31 c9                	xor    ecx,ecx
  403309:	48 85 f6             	test   rsi,rsi
  40330c:	0f 84 e9 00 00 00    	je     4033fb <lin_solve+0xcbb>
  403312:	48 8b 3c 24          	mov    rdi,QWORD PTR [rsp]
  403316:	66 2e 0f 1f 84 00 00 00 00 00 	cs nop WORD PTR [rax+rax*1+0x0]
  403320:	41 8d 04 08          	lea    eax,[r8+rcx*1]
  403324:	8d 1c 0f             	lea    ebx,[rdi+rcx*1]
  403327:	c5 f9 6e c0          	vmovd  xmm0,eax
  40332b:	c4 e2 79 58 c0       	vpbroadcastd xmm0,xmm0
  403330:	c5 f9 fe cd          	vpaddd xmm1,xmm0,xmm5
  403334:	c5 b9 fe c0          	vpaddd xmm0,xmm8,xmm0
  403338:	c4 e2 7d 35 c9       	vpmovzxdq ymm1,xmm1
  40333d:	c4 e2 7d 35 c0       	vpmovzxdq ymm0,xmm0
  403342:	c5 f5 73 f1 02       	vpsllq ymm1,ymm1,0x2
  403347:	c5 fd 73 f0 02       	vpsllq ymm0,ymm0,0x2
  40334c:	c5 cd d4 c9          	vpaddq ymm1,ymm6,ymm1
  403350:	c5 cd d4 c0          	vpaddq ymm0,ymm6,ymm0
  403354:	c4 e1 f9 7e c8       	vmovq  rax,xmm1
  403359:	c4 e3 f9 16 ca 01    	vpextrq rdx,xmm1,0x1
  40335f:	c4 e3 7d 39 c9 01    	vextracti128 xmm1,ymm1,0x1
  403365:	c5 fa 10 10          	vmovss xmm2,DWORD PTR [rax]
  403369:	c4 e3 69 21 12 10    	vinsertps xmm2,xmm2,DWORD PTR [rdx],0x10
  40336f:	c4 e1 f9 7e c8       	vmovq  rax,xmm1
  403374:	c4 e3 f9 16 ca 01    	vpextrq rdx,xmm1,0x1
  40337a:	c4 e3 69 21 08 20    	vinsertps xmm1,xmm2,DWORD PTR [rax],0x20
  403380:	c4 e1 f9 7e c0       	vmovq  rax,xmm0
  403385:	c5 fa 10 10          	vmovss xmm2,DWORD PTR [rax]
  403389:	c4 e3 f9 16 c0 01    	vpextrq rax,xmm0,0x1
  40338f:	c4 e3 7d 39 c0 01    	vextracti128 xmm0,ymm0,0x1
  403395:	c4 e3 71 21 0a 30    	vinsertps xmm1,xmm1,DWORD PTR [rdx],0x30
  40339b:	41 8d 54 0d 00       	lea    edx,[r13+rcx*1+0x0]
  4033a0:	48 83 c1 04          	add    rcx,0x4
  4033a4:	c4 e3 69 21 10 10    	vinsertps xmm2,xmm2,DWORD PTR [rax],0x10
  4033aa:	c4 e1 f9 7e c0       	vmovq  rax,xmm0
  4033af:	c4 e3 f9 16 c5 01    	vpextrq rbp,xmm0,0x1
  4033b5:	c4 e3 69 21 10 20    	vinsertps xmm2,xmm2,DWORD PTR [rax],0x20
  4033bb:	48 63 c3             	movsxd rax,ebx
  4033be:	c4 e3 69 21 45 00 30 	vinsertps xmm0,xmm2,DWORD PTR [rbp+0x0],0x30
  4033c5:	c4 c1 78 58 04 86    	vaddps xmm0,xmm0,XMMWORD PTR [r14+rax*4]
  4033cb:	48 63 c2             	movsxd rax,edx
  4033ce:	c4 c1 70 58 0c 86    	vaddps xmm1,xmm1,XMMWORD PTR [r14+rax*4]
  4033d4:	c5 f8 58 c1          	vaddps xmm0,xmm0,xmm1
  4033d8:	c4 c2 31 a8 04 84    	vfmadd213ps xmm0,xmm9,XMMWORD PTR [r12+rax*4]
  4033de:	c5 a8 59 c0          	vmulps xmm0,xmm10,xmm0
  4033e2:	c4 c1 78 11 04 87    	vmovups XMMWORD PTR [r15+rax*4],xmm0
  4033e8:	48 39 f1             	cmp    rcx,rsi
  4033eb:	0f 82 2f ff ff ff    	jb     403320 <lin_solve+0xbe0>
  4033f1:	48 89 f1             	mov    rcx,rsi
  4033f4:	48 3b 74 24 58       	cmp    rsi,QWORD PTR [rsp+0x58]
  4033f9:	74 68                	je     403463 <lin_solve+0xd23>
  4033fb:	48 8b 54 24 08       	mov    rdx,QWORD PTR [rsp+0x8]
  403400:	48 8b 44 24 58       	mov    rax,QWORD PTR [rsp+0x58]
  403405:	31 ed                	xor    ebp,ebp
  403407:	8d 34 0a             	lea    esi,[rdx+rcx*1]
  40340a:	41 8d 14 09          	lea    edx,[r9+rcx*1]
  40340e:	48 29 c8             	sub    rax,rcx
  403411:	44 01 e9             	add    ecx,r13d
  403414:	49 8d 3c 96          	lea    rdi,[r14+rdx*4]
  403418:	0f 1f 84 00 00 00 00 00 	nop    DWORD PTR [rax+rax*1+0x0]
  403420:	8d 14 2e             	lea    edx,[rsi+rbp*1]
  403423:	8d 1c 29             	lea    ebx,[rcx+rbp*1]
  403426:	c4 c1 7a 10 04 96    	vmovss xmm0,DWORD PTR [r14+rdx*4]
  40342c:	8d 54 29 01          	lea    edx,[rcx+rbp*1+0x1]
  403430:	48 63 db             	movsxd rbx,ebx
  403433:	c4 c1 7a 58 04 9e    	vaddss xmm0,xmm0,DWORD PTR [r14+rbx*4]
  403439:	48 63 d2             	movsxd rdx,edx
  40343c:	c4 c1 7a 10 0c 96    	vmovss xmm1,DWORD PTR [r14+rdx*4]
  403442:	c5 f2 58 0c af       	vaddss xmm1,xmm1,DWORD PTR [rdi+rbp*4]
  403447:	48 ff c5             	inc    rbp
  40344a:	c5 f2 58 c0          	vaddss xmm0,xmm1,xmm0
  40344e:	c4 c2 21 a9 04 9c    	vfmadd213ss xmm0,xmm11,DWORD PTR [r12+rbx*4]
  403454:	c5 fa 59 c7          	vmulss xmm0,xmm0,xmm7
  403458:	c4 c1 7a 11 04 9f    	vmovss DWORD PTR [r15+rbx*4],xmm0
  40345e:	48 39 e8             	cmp    rax,rbp
  403461:	75 bd                	jne    403420 <lin_solve+0xce0>
  403463:	83 7c 24 2c 04       	cmp    DWORD PTR [rsp+0x2c],0x4
  403468:	0f 82 12 fb ff ff    	jb     402f80 <lin_solve+0x840>
  40346e:	48 83 7c 24 60 00    	cmp    QWORD PTR [rsp+0x60],0x0
  403474:	0f 84 fe 00 00 00    	je     403578 <lin_solve+0xe38>
  40347a:	44 89 5c 24 54       	mov    DWORD PTR [rsp+0x54],r11d
  40347f:	31 c9                	xor    ecx,ecx
  403481:	4c 8b 5c 24 60       	mov    r11,QWORD PTR [rsp+0x60]
  403486:	66 2e 0f 1f 84 00 00 00 00 00 	cs nop WORD PTR [rax+rax*1+0x0]
  403490:	41 8d 54 0d 00       	lea    edx,[r13+rcx*1+0x0]
  403495:	41 8d 34 0a          	lea    esi,[r10+rcx*1]
  403499:	41 8d 44 0a 01       	lea    eax,[r10+rcx*1+0x1]
  40349e:	48 83 c1 04          	add    rcx,0x4
  4034a2:	c5 f9 6e c2          	vmovd  xmm0,edx
  4034a6:	c4 e2 79 58 c0       	vpbroadcastd xmm0,xmm0
  4034ab:	48 98                	cdqe
  4034ad:	c5 89 fe c8          	vpaddd xmm1,xmm14,xmm0
  4034b1:	c5 91 fe c0          	vpaddd xmm0,xmm13,xmm0
  4034b5:	c4 e2 7d 35 c9       	vpmovzxdq ymm1,xmm1
  4034ba:	c4 e2 7d 35 c0       	vpmovzxdq ymm0,xmm0
  4034bf:	c5 f5 73 f1 02       	vpsllq ymm1,ymm1,0x2
  4034c4:	c5 fd 73 f0 02       	vpsllq ymm0,ymm0,0x2
  4034c9:	c5 cd d4 c9          	vpaddq ymm1,ymm6,ymm1
  4034cd:	c5 cd d4 c0          	vpaddq ymm0,ymm6,ymm0
  4034d1:	c4 e1 f9 7e ca       	vmovq  rdx,xmm1
  4034d6:	c4 e3 f9 16 cf 01    	vpextrq rdi,xmm1,0x1
  4034dc:	c4 e3 7d 39 c9 01    	vextracti128 xmm1,ymm1,0x1
  4034e2:	c4 e3 f9 16 cb 01    	vpextrq rbx,xmm1,0x1
  4034e8:	c4 e1 f9 7e cd       	vmovq  rbp,xmm1
  4034ed:	c5 fa 10 0a          	vmovss xmm1,DWORD PTR [rdx]
  4034f1:	48 63 d6             	movsxd rdx,esi
  4034f4:	c4 e1 f9 7e c6       	vmovq  rsi,xmm0
  4034f9:	c4 e3 71 21 0f 10    	vinsertps xmm1,xmm1,DWORD PTR [rdi],0x10
  4034ff:	c4 e3 f9 16 c7 01    	vpextrq rdi,xmm0,0x1
  403505:	c4 e3 7d 39 c0 01    	vextracti128 xmm0,ymm0,0x1
  40350b:	c4 e3 71 21 4d 00 20 	vinsertps xmm1,xmm1,DWORD PTR [rbp+0x0],0x20
  403512:	c4 e3 71 21 0b 30    	vinsertps xmm1,xmm1,DWORD PTR [rbx],0x30
  403518:	c4 c1 70 58 0c 86    	vaddps xmm1,xmm1,XMMWORD PTR [r14+rax*4]
  40351e:	c4 e1 f9 7e c3       	vmovq  rbx,xmm0
  403523:	c4 e3 f9 16 c5 01    	vpextrq rbp,xmm0,0x1
  403529:	c5 fa 10 06          	vmovss xmm0,DWORD PTR [rsi]
  40352d:	c4 e3 79 21 07 10    	vinsertps xmm0,xmm0,DWORD PTR [rdi],0x10
  403533:	c4 e3 79 21 03 20    	vinsertps xmm0,xmm0,DWORD PTR [rbx],0x20
  403539:	c4 e3 79 21 45 00 30 	vinsertps xmm0,xmm0,DWORD PTR [rbp+0x0],0x30
  403540:	c4 c1 78 58 04 96    	vaddps xmm0,xmm0,XMMWORD PTR [r14+rdx*4]
  403546:	c5 f8 58 c1          	vaddps xmm0,xmm0,xmm1
  40354a:	c4 c2 31 a8 04 84    	vfmadd213ps xmm0,xmm9,XMMWORD PTR [r12+rax*4]
  403550:	c5 a8 59 c0          	vmulps xmm0,xmm10,xmm0
  403554:	c4 c1 78 11 04 87    	vmovups XMMWORD PTR [r15+rax*4],xmm0
  40355a:	4c 39 d9             	cmp    rcx,r11
  40355d:	0f 8c 2d ff ff ff    	jl     403490 <lin_solve+0xd50>
  403563:	4c 89 d9             	mov    rcx,r11
  403566:	4c 39 5c 24 38       	cmp    QWORD PTR [rsp+0x38],r11
  40356b:	44 8b 5c 24 54       	mov    r11d,DWORD PTR [rsp+0x54]
  403570:	0f 84 0a fa ff ff    	je     402f80 <lin_solve+0x840>
  403576:	eb 02                	jmp    40357a <lin_solve+0xe3a>
  403578:	31 c9                	xor    ecx,ecx
  40357a:	48 8b 34 24          	mov    rsi,QWORD PTR [rsp]
  40357e:	48 8b 7c 24 30       	mov    rdi,QWORD PTR [rsp+0x30]
  403583:	48 8b 44 24 38       	mov    rax,QWORD PTR [rsp+0x38]
  403588:	0f 1f 84 00 00 00 00 00 	nop    DWORD PTR [rax+rax*1+0x0]
  403590:	42 8d 54 09 01       	lea    edx,[rcx+r9*1+0x1]
  403595:	42 8d 1c 09          	lea    ebx,[rcx+r9*1]
  403599:	8d 2c 0e             	lea    ebp,[rsi+rcx*1]
  40359c:	48 ff c8             	dec    rax
  40359f:	49 ff c1             	inc    r9
  4035a2:	48 ff c6             	inc    rsi
  4035a5:	48 63 db             	movsxd rbx,ebx
  4035a8:	c4 c1 7a 10 04 ae    	vmovss xmm0,DWORD PTR [r14+rbp*4]
  4035ae:	48 63 d2             	movsxd rdx,edx
  4035b1:	c4 c1 7a 10 0c 9e    	vmovss xmm1,DWORD PTR [r14+rbx*4]
  4035b7:	8d 1c 0f             	lea    ebx,[rdi+rcx*1]
  4035ba:	48 ff c7             	inc    rdi
  4035bd:	c4 c1 7a 58 04 96    	vaddss xmm0,xmm0,DWORD PTR [r14+rdx*4]
  4035c3:	c4 c1 72 58 0c 9e    	vaddss xmm1,xmm1,DWORD PTR [r14+rbx*4]
  4035c9:	c5 f2 58 c0          	vaddss xmm0,xmm1,xmm0
  4035cd:	c4 c2 21 a9 04 94    	vfmadd213ss xmm0,xmm11,DWORD PTR [r12+rdx*4]
  4035d3:	c5 fa 59 c7          	vmulss xmm0,xmm0,xmm7
  4035d7:	c4 c1 7a 11 04 97    	vmovss DWORD PTR [r15+rdx*4],xmm0
  4035dd:	48 39 c1             	cmp    rcx,rax
  4035e0:	75 ae                	jne    403590 <lin_solve+0xe50>
  4035e2:	e9 99 f9 ff ff       	jmp    402f80 <lin_solve+0x840>
  4035e7:	66 0f 1f 84 00 00 00 00 00 	nop    WORD PTR [rax+rax*1+0x0]
  4035f0:	48 8b 9c 24 d0 00 00 00 	mov    rbx,QWORD PTR [rsp+0xd0]
  4035f8:	48 8b 7c 24 70       	mov    rdi,QWORD PTR [rsp+0x70]
  4035fd:	48 8b 94 24 b8 00 00 00 	mov    rdx,QWORD PTR [rsp+0xb8]
  403605:	4c 8b 84 24 98 00 00 00 	mov    r8,QWORD PTR [rsp+0x98]
  40360d:	4c 8b 9c 24 90 00 00 00 	mov    r11,QWORD PTR [rsp+0x90]
  403615:	4c 8b ac 24 c0 00 00 00 	mov    r13,QWORD PTR [rsp+0xc0]
  40361d:	4c 8b 54 24 78       	mov    r10,QWORD PTR [rsp+0x78]
  403622:	31 f6                	xor    esi,esi
  403624:	31 c0                	xor    eax,eax
  403626:	48 89 44 24 10       	mov    QWORD PTR [rsp+0x10],rax
  40362b:	eb 48                	jmp    403675 <lin_solve+0xf35>
  40362d:	0f 1f 00             	nop    DWORD PTR [rax]
  403630:	48 8b 4c 24 10       	mov    rcx,QWORD PTR [rsp+0x10]
  403635:	48 8b 44 24 70       	mov    rax,QWORD PTR [rsp+0x70]
  40363a:	48 8b 74 24 08       	mov    rsi,QWORD PTR [rsp+0x8]
  40363f:	48 8b 14 24          	mov    rdx,QWORD PTR [rsp]
  403643:	48 83 c1 04          	add    rcx,0x4
  403647:	49 01 c2             	add    r10,rax
  40364a:	48 01 c6             	add    rsi,rax
  40364d:	49 01 c5             	add    r13,rax
  403650:	49 01 c3             	add    r11,rax
  403653:	49 01 c0             	add    r8,rax
  403656:	48 01 c2             	add    rdx,rax
  403659:	48 01 c7             	add    rdi,rax
  40365c:	48 01 c3             	add    rbx,rax
  40365f:	48 89 4c 24 10       	mov    QWORD PTR [rsp+0x10],rcx
  403664:	48 89 c8             	mov    rax,rcx
  403667:	48 3b 8c 24 b0 00 00 00 	cmp    rcx,QWORD PTR [rsp+0xb0]
  40366f:	0f 84 f1 f5 ff ff    	je     402c66 <lin_solve+0x526>
  403675:	48 89 74 24 08       	mov    QWORD PTR [rsp+0x8],rsi
  40367a:	48 89 14 24          	mov    QWORD PTR [rsp],rdx
  40367e:	48 89 7c 24 40       	mov    QWORD PTR [rsp+0x40],rdi
  403683:	48 89 5c 24 18       	mov    QWORD PTR [rsp+0x18],rbx
  403688:	83 7c 24 2c 04       	cmp    DWORD PTR [rsp+0x2c],0x4
  40368d:	4c 8b 64 24 48       	mov    r12,QWORD PTR [rsp+0x48]
  403692:	0f 82 78 01 00 00    	jb     403810 <lin_solve+0x10d0>
  403698:	4c 8b 4c 24 60       	mov    r9,QWORD PTR [rsp+0x60]
  40369d:	4d 85 c9             	test   r9,r9
  4036a0:	0f 84 fe 00 00 00    	je     4037a4 <lin_solve+0x1064>
  4036a6:	4c 89 6c 24 30       	mov    QWORD PTR [rsp+0x30],r13
  4036ab:	31 c9                	xor    ecx,ecx
  4036ad:	4c 8b 64 24 48       	mov    r12,QWORD PTR [rsp+0x48]
  4036b2:	4c 8b 6c 24 08       	mov    r13,QWORD PTR [rsp+0x8]
  4036b7:	66 0f 1f 84 00 00 00 00 00 	nop    WORD PTR [rax+rax*1+0x0]
  4036c0:	41 8d 54 0d 00       	lea    edx,[r13+rcx*1+0x0]
  4036c5:	41 8d 34 0a          	lea    esi,[r10+rcx*1]
  4036c9:	41 8d 44 0a 01       	lea    eax,[r10+rcx*1+0x1]
  4036ce:	48 83 c1 04          	add    rcx,0x4
  4036d2:	c5 f9 6e c2          	vmovd  xmm0,edx
  4036d6:	c4 e2 79 58 c0       	vpbroadcastd xmm0,xmm0
  4036db:	48 98                	cdqe
  4036dd:	c5 89 fe c8          	vpaddd xmm1,xmm14,xmm0
  4036e1:	c5 91 fe c0          	vpaddd xmm0,xmm13,xmm0
  4036e5:	c4 e2 7d 35 c9       	vpmovzxdq ymm1,xmm1
  4036ea:	c4 e2 7d 35 c0       	vpmovzxdq ymm0,xmm0
  4036ef:	c5 f5 73 f1 02       	vpsllq ymm1,ymm1,0x2
  4036f4:	c5 fd 73 f0 02       	vpsllq ymm0,ymm0,0x2
  4036f9:	c5 9d d4 c9          	vpaddq ymm1,ymm12,ymm1
  4036fd:	c5 9d d4 c0          	vpaddq ymm0,ymm12,ymm0
  403701:	c4 e1 f9 7e ca       	vmovq  rdx,xmm1
  403706:	c4 e3 f9 16 cd 01    	vpextrq rbp,xmm1,0x1
  40370c:	c4 e3 7d 39 c9 01    	vextracti128 xmm1,ymm1,0x1
  403712:	c4 e3 f9 16 cb 01    	vpextrq rbx,xmm1,0x1
  403718:	c4 e1 f9 7e cf       	vmovq  rdi,xmm1
  40371d:	c5 fa 10 0a          	vmovss xmm1,DWORD PTR [rdx]
  403721:	48 63 d6             	movsxd rdx,esi
  403724:	c4 e1 f9 7e c6       	vmovq  rsi,xmm0
  403729:	c4 e3 71 21 4d 00 10 	vinsertps xmm1,xmm1,DWORD PTR [rbp+0x0],0x10
  403730:	c4 e3 71 21 0f 20    	vinsertps xmm1,xmm1,DWORD PTR [rdi],0x20
  403736:	c4 e3 f9 16 c7 01    	vpextrq rdi,xmm0,0x1
  40373c:	c4 e3 7d 39 c0 01    	vextracti128 xmm0,ymm0,0x1
  403742:	c4 e3 71 21 0b 30    	vinsertps xmm1,xmm1,DWORD PTR [rbx],0x30
  403748:	c4 c1 70 58 0c 87    	vaddps xmm1,xmm1,XMMWORD PTR [r15+rax*4]
  40374e:	c4 e1 f9 7e c5       	vmovq  rbp,xmm0
  403753:	c4 e3 f9 16 c3 01    	vpextrq rbx,xmm0,0x1
  403759:	c5 fa 10 06          	vmovss xmm0,DWORD PTR [rsi]
  40375d:	c4 e3 79 21 07 10    	vinsertps xmm0,xmm0,DWORD PTR [rdi],0x10
  403763:	c4 e3 79 21 45 00 20 	vinsertps xmm0,xmm0,DWORD PTR [rbp+0x0],0x20
  40376a:	c4 e3 79 21 03 30    	vinsertps xmm0,xmm0,DWORD PTR [rbx],0x30
  403770:	c4 c1 78 58 04 97    	vaddps xmm0,xmm0,XMMWORD PTR [r15+rdx*4]
  403776:	c5 f8 58 c1          	vaddps xmm0,xmm0,xmm1
  40377a:	c4 c2 31 a8 04 84    	vfmadd213ps xmm0,xmm9,XMMWORD PTR [r12+rax*4]
  403780:	c5 a8 59 c0          	vmulps xmm0,xmm10,xmm0
  403784:	c4 c1 78 11 04 86    	vmovups XMMWORD PTR [r14+rax*4],xmm0
  40378a:	4c 39 c9             	cmp    rcx,r9
  40378d:	0f 8c 2d ff ff ff    	jl     4036c0 <lin_solve+0xf80>
  403793:	4c 8b 6c 24 30       	mov    r13,QWORD PTR [rsp+0x30]
  403798:	4c 89 c9             	mov    rcx,r9
  40379b:	4c 39 4c 24 38       	cmp    QWORD PTR [rsp+0x38],r9
  4037a0:	75 09                	jne    4037ab <lin_solve+0x106b>
  4037a2:	eb 6c                	jmp    403810 <lin_solve+0x10d0>
  4037a4:	4c 8b 64 24 48       	mov    r12,QWORD PTR [rsp+0x48]
  4037a9:	31 c9                	xor    ecx,ecx
  4037ab:	8b 6c 24 08          	mov    ebp,DWORD PTR [rsp+0x8]
  4037af:	4c 8b 4c 24 38       	mov    r9,QWORD PTR [rsp+0x38]
  4037b4:	4c 89 ea             	mov    rdx,r13
  4037b7:	4c 89 d6             	mov    rsi,r10
  4037ba:	48 ff c5             	inc    rbp
  4037bd:	0f 1f 00             	nop    DWORD PTR [rax]
  4037c0:	8d 44 31 01          	lea    eax,[rcx+rsi*1+0x1]
  4037c4:	8d 3c 31             	lea    edi,[rcx+rsi*1]
  4037c7:	8d 5c 0d 00          	lea    ebx,[rbp+rcx*1+0x0]
  4037cb:	49 ff c9             	dec    r9
  4037ce:	48 ff c6             	inc    rsi
  4037d1:	48 ff c5             	inc    rbp
  4037d4:	48 63 ff             	movsxd rdi,edi
  4037d7:	c4 c1 7a 10 04 9f    	vmovss xmm0,DWORD PTR [r15+rbx*4]
  4037dd:	48 98                	cdqe
  4037df:	c4 c1 7a 10 0c bf    	vmovss xmm1,DWORD PTR [r15+rdi*4]
  4037e5:	8d 3c 0a             	lea    edi,[rdx+rcx*1]
  4037e8:	48 ff c2             	inc    rdx
  4037eb:	c4 c1 7a 58 04 87    	vaddss xmm0,xmm0,DWORD PTR [r15+rax*4]
  4037f1:	c4 c1 72 58 0c bf    	vaddss xmm1,xmm1,DWORD PTR [r15+rdi*4]
  4037f7:	c5 f2 58 c0          	vaddss xmm0,xmm1,xmm0
  4037fb:	c4 c2 21 a9 04 84    	vfmadd213ss xmm0,xmm11,DWORD PTR [r12+rax*4]
  403801:	c5 fa 59 c7          	vmulss xmm0,xmm0,xmm7
  403805:	c4 c1 7a 11 04 86    	vmovss DWORD PTR [r14+rax*4],xmm0
  40380b:	4c 39 c9             	cmp    rcx,r9
  40380e:	75 b0                	jne    4037c0 <lin_solve+0x1080>
  403810:	83 7c 24 20 01       	cmp    DWORD PTR [rsp+0x20],0x1
  403815:	48 8b 7c 24 58       	mov    rdi,QWORD PTR [rsp+0x58]
  40381a:	0f 84 3b 01 00 00    	je     40395b <lin_solve+0x121b>
  403820:	48 8b 6c 24 68       	mov    rbp,QWORD PTR [rsp+0x68]
  403825:	48 85 ed             	test   rbp,rbp
  403828:	0f 84 de 00 00 00    	je     40390c <lin_solve+0x11cc>
  40382e:	31 c9                	xor    ecx,ecx
  403830:	41 8d 04 0a          	lea    eax,[r10+rcx*1]
  403834:	41 8d 74 0d 00       	lea    esi,[r13+rcx*1+0x0]
  403839:	c5 f9 6e c0          	vmovd  xmm0,eax
  40383d:	c4 e2 79 58 c0       	vpbroadcastd xmm0,xmm0
  403842:	c5 f9 fe cd          	vpaddd xmm1,xmm0,xmm5
  403846:	c5 b9 fe c0          	vpaddd xmm0,xmm8,xmm0
  40384a:	c4 e2 7d 35 c9       	vpmovzxdq ymm1,xmm1
  40384f:	c4 e2 7d 35 c0       	vpmovzxdq ymm0,xmm0
  403854:	c5 f5 73 f1 02       	vpsllq ymm1,ymm1,0x2
  403859:	c5 fd 73 f0 02       	vpsllq ymm0,ymm0,0x2
  40385e:	c5 9d d4 c9          	vpaddq ymm1,ymm12,ymm1
  403862:	c5 9d d4 c0          	vpaddq ymm0,ymm12,ymm0
  403866:	c4 e1 f9 7e c8       	vmovq  rax,xmm1
  40386b:	c4 e3 f9 16 ca 01    	vpextrq rdx,xmm1,0x1
  403871:	c4 e3 7d 39 c9 01    	vextracti128 xmm1,ymm1,0x1
  403877:	c4 c1 f9 7e c1       	vmovq  r9,xmm0
  40387c:	c4 e3 f9 16 c3 01    	vpextrq rbx,xmm0,0x1
  403882:	c4 e3 7d 39 c0 01    	vextracti128 xmm0,ymm0,0x1
  403888:	c5 fa 10 10          	vmovss xmm2,DWORD PTR [rax]
  40388c:	c4 e3 69 21 12 10    	vinsertps xmm2,xmm2,DWORD PTR [rdx],0x10
  403892:	c4 e1 f9 7e c8       	vmovq  rax,xmm1
  403897:	c4 e3 f9 16 ca 01    	vpextrq rdx,xmm1,0x1
  40389d:	c4 e3 69 21 08 20    	vinsertps xmm1,xmm2,DWORD PTR [rax],0x20
  4038a3:	c4 c1 7a 10 11       	vmovss xmm2,DWORD PTR [r9]
  4038a8:	c4 e1 f9 7e c0       	vmovq  rax,xmm0
  4038ad:	c4 c3 f9 16 c1 01    	vpextrq r9,xmm0,0x1
  4038b3:	c4 e3 69 21 13 10    	vinsertps xmm2,xmm2,DWORD PTR [rbx],0x10
  4038b9:	c4 e3 71 21 0a 30    	vinsertps xmm1,xmm1,DWORD PTR [rdx],0x30
  4038bf:	41 8d 14 0b          	lea    edx,[r11+rcx*1]
  4038c3:	48 83 c1 04          	add    rcx,0x4
  4038c7:	c4 e3 69 21 10 20    	vinsertps xmm2,xmm2,DWORD PTR [rax],0x20
  4038cd:	48 63 c6             	movsxd rax,esi
  4038d0:	c4 c3 69 21 01 30    	vinsertps xmm0,xmm2,DWORD PTR [r9],0x30
  4038d6:	c4 c1 78 58 04 87    	vaddps xmm0,xmm0,XMMWORD PTR [r15+rax*4]
  4038dc:	48 63 c2             	movsxd rax,edx
  4038df:	c4 c1 70 58 0c 87    	vaddps xmm1,xmm1,XMMWORD PTR [r15+rax*4]
  4038e5:	c5 f8 58 c1          	vaddps xmm0,xmm0,xmm1
  4038e9:	c4 c2 31 a8 04 84    	vfmadd213ps xmm0,xmm9,XMMWORD PTR [r12+rax*4]
  4038ef:	c5 a8 59 c0          	vmulps xmm0,xmm10,xmm0
  4038f3:	c4 c1 78 11 04 86    	vmovups XMMWORD PTR [r14+rax*4],xmm0
  4038f9:	48 39 e9             	cmp    rcx,rbp
  4038fc:	0f 82 2e ff ff ff    	jb     403830 <lin_solve+0x10f0>
  403902:	48 89 e8             	mov    rax,rbp
  403905:	48 39 fd             	cmp    rbp,rdi
  403908:	75 06                	jne    403910 <lin_solve+0x11d0>
  40390a:	eb 4f                	jmp    40395b <lin_solve+0x121b>
  40390c:	31 c0                	xor    eax,eax
  40390e:	66 90                	xchg   ax,ax
  403910:	41 8d 74 03 01       	lea    esi,[r11+rax*1+0x1]
  403915:	41 8d 0c 02          	lea    ecx,[r10+rax*1]
  403919:	41 8d 14 03          	lea    edx,[r11+rax*1]
  40391d:	c4 c1 7a 10 04 8f    	vmovss xmm0,DWORD PTR [r15+rcx*4]
  403923:	48 63 d2             	movsxd rdx,edx
  403926:	48 63 ce             	movsxd rcx,esi
  403929:	c4 c1 7a 58 04 97    	vaddss xmm0,xmm0,DWORD PTR [r15+rdx*4]
  40392f:	c4 c1 7a 10 0c 8f    	vmovss xmm1,DWORD PTR [r15+rcx*4]
  403935:	41 8d 0c 00          	lea    ecx,[r8+rax*1]
  403939:	48 ff c0             	inc    rax
  40393c:	c4 c1 72 58 0c 8f    	vaddss xmm1,xmm1,DWORD PTR [r15+rcx*4]
  403942:	c5 f2 58 c0          	vaddss xmm0,xmm1,xmm0
  403946:	c4 c2 21 a9 04 94    	vfmadd213ss xmm0,xmm11,DWORD PTR [r12+rdx*4]
  40394c:	c5 fa 59 c7          	vmulss xmm0,xmm0,xmm7
  403950:	c4 c1 7a 11 04 96    	vmovss DWORD PTR [r14+rdx*4],xmm0
  403956:	48 39 c7             	cmp    rdi,rax
  403959:	75 b5                	jne    403910 <lin_solve+0x11d0>
  40395b:	83 7c 24 2c 04       	cmp    DWORD PTR [rsp+0x2c],0x4
  403960:	0f 82 6e 01 00 00    	jb     403ad4 <lin_solve+0x1394>
  403966:	4c 8b 4c 24 60       	mov    r9,QWORD PTR [rsp+0x60]
  40396b:	4d 85 c9             	test   r9,r9
  40396e:	0f 84 ea 00 00 00    	je     403a5e <lin_solve+0x131e>
  403974:	4c 8b 64 24 48       	mov    r12,QWORD PTR [rsp+0x48]
  403979:	31 c9                	xor    ecx,ecx
  40397b:	0f 1f 44 00 00       	nop    DWORD PTR [rax+rax*1+0x0]
  403980:	41 8d 14 0b          	lea    edx,[r11+rcx*1]
  403984:	41 8d 34 08          	lea    esi,[r8+rcx*1]
  403988:	41 8d 44 08 01       	lea    eax,[r8+rcx*1+0x1]
  40398d:	48 83 c1 04          	add    rcx,0x4
  403991:	c5 f9 6e c2          	vmovd  xmm0,edx
  403995:	c4 e2 79 58 c0       	vpbroadcastd xmm0,xmm0
  40399a:	48 98                	cdqe
  40399c:	c5 89 fe c8          	vpaddd xmm1,xmm14,xmm0
  4039a0:	c5 91 fe c0          	vpaddd xmm0,xmm13,xmm0
  4039a4:	c4 e2 7d 35 c9       	vpmovzxdq ymm1,xmm1
  4039a9:	c4 e2 7d 35 c0       	vpmovzxdq ymm0,xmm0
  4039ae:	c5 f5 73 f1 02       	vpsllq ymm1,ymm1,0x2
  4039b3:	c5 fd 73 f0 02       	vpsllq ymm0,ymm0,0x2
  4039b8:	c5 9d d4 c9          	vpaddq ymm1,ymm12,ymm1
  4039bc:	c5 9d d4 c0          	vpaddq ymm0,ymm12,ymm0
  4039c0:	c4 e1 f9 7e ca       	vmovq  rdx,xmm1
  4039c5:	c4 e3 f9 16 cf 01    	vpextrq rdi,xmm1,0x1
  4039cb:	c4 e3 7d 39 c9 01    	vextracti128 xmm1,ymm1,0x1
  4039d1:	c4 e3 f9 16 cd 01    	vpextrq rbp,xmm1,0x1
  4039d7:	c4 e1 f9 7e cb       	vmovq  rbx,xmm1
  4039dc:	c5 fa 10 0a          	vmovss xmm1,DWORD PTR [rdx]
  4039e0:	48 63 d6             	movsxd rdx,esi
  4039e3:	c4 e1 f9 7e c6       	vmovq  rsi,xmm0
  4039e8:	c4 e3 71 21 0f 10    	vinsertps xmm1,xmm1,DWORD PTR [rdi],0x10
  4039ee:	c4 e3 f9 16 c7 01    	vpextrq rdi,xmm0,0x1
  4039f4:	c4 e3 7d 39 c0 01    	vextracti128 xmm0,ymm0,0x1
  4039fa:	c4 e3 71 21 0b 20    	vinsertps xmm1,xmm1,DWORD PTR [rbx],0x20
  403a00:	c4 e3 71 21 4d 00 30 	vinsertps xmm1,xmm1,DWORD PTR [rbp+0x0],0x30
  403a07:	c4 c1 70 58 0c 87    	vaddps xmm1,xmm1,XMMWORD PTR [r15+rax*4]
  403a0d:	c4 e1 f9 7e c5       	vmovq  rbp,xmm0
  403a12:	c4 e3 f9 16 c3 01    	vpextrq rbx,xmm0,0x1
  403a18:	c5 fa 10 06          	vmovss xmm0,DWORD PTR [rsi]
  403a1c:	c4 e3 79 21 07 10    	vinsertps xmm0,xmm0,DWORD PTR [rdi],0x10
  403a22:	c4 e3 79 21 45 00 20 	vinsertps xmm0,xmm0,DWORD PTR [rbp+0x0],0x20
  403a29:	c4 e3 79 21 03 30    	vinsertps xmm0,xmm0,DWORD PTR [rbx],0x30
  403a2f:	c4 c1 78 58 04 97    	vaddps xmm0,xmm0,XMMWORD PTR [r15+rdx*4]
  403a35:	c5 f8 58 c1          	vaddps xmm0,xmm0,xmm1
  403a39:	c4 c2 31 a8 04 84    	vfmadd213ps xmm0,xmm9,XMMWORD PTR [r12+rax*4]
  403a3f:	c5 a8 59 c0          	vmulps xmm0,xmm10,xmm0
  403a43:	c4 c1 78 11 04 86    	vmovups XMMWORD PTR [r14+rax*4],xmm0
  403a49:	4c 39 c9             	cmp    rcx,r9
  403a4c:	0f 8c 2e ff ff ff    	jl     403980 <lin_solve+0x1240>
  403a52:	4c 89 c8             	mov    rax,r9
  403a55:	4c 39 4c 24 38       	cmp    QWORD PTR [rsp+0x38],r9
  403a5a:	75 0a                	jne    403a66 <lin_solve+0x1326>
  403a5c:	eb 76                	jmp    403ad4 <lin_solve+0x1394>
  403a5e:	4c 8b 64 24 48       	mov    r12,QWORD PTR [rsp+0x48]
  403a63:	45 31 c9             	xor    r9d,r9d
  403a66:	48 8b 34 24          	mov    rsi,QWORD PTR [rsp]
  403a6a:	48 8b 44 24 38       	mov    rax,QWORD PTR [rsp+0x38]
  403a6f:	4c 89 ea             	mov    rdx,r13
  403a72:	4c 89 c5             	mov    rbp,r8
  403a75:	66 66 2e 0f 1f 84 00 00 00 00 00 	data16 cs nop WORD PTR [rax+rax*1+0x0]
  403a80:	41 8d 7c 29 01       	lea    edi,[r9+rbp*1+0x1]
  403a85:	42 8d 0c 0a          	lea    ecx,[rdx+r9*1]
  403a89:	41 8d 1c 29          	lea    ebx,[r9+rbp*1]
  403a8d:	48 ff c8             	dec    rax
  403a90:	48 ff c5             	inc    rbp
  403a93:	48 ff c2             	inc    rdx
  403a96:	c4 c1 7a 10 04 8f    	vmovss xmm0,DWORD PTR [r15+rcx*4]
  403a9c:	48 63 cb             	movsxd rcx,ebx
  403a9f:	48 63 ff             	movsxd rdi,edi
  403aa2:	c4 c1 7a 10 0c 8f    	vmovss xmm1,DWORD PTR [r15+rcx*4]
  403aa8:	42 8d 0c 0e          	lea    ecx,[rsi+r9*1]
  403aac:	48 ff c6             	inc    rsi
  403aaf:	c4 c1 7a 58 04 bf    	vaddss xmm0,xmm0,DWORD PTR [r15+rdi*4]
  403ab5:	c4 c1 72 58 0c 8f    	vaddss xmm1,xmm1,DWORD PTR [r15+rcx*4]
  403abb:	c5 f2 58 c0          	vaddss xmm0,xmm1,xmm0
  403abf:	c4 c2 21 a9 04 bc    	vfmadd213ss xmm0,xmm11,DWORD PTR [r12+rdi*4]
  403ac5:	c5 fa 59 c7          	vmulss xmm0,xmm0,xmm7
  403ac9:	c4 c1 7a 11 04 be    	vmovss DWORD PTR [r14+rdi*4],xmm0
  403acf:	49 39 c1             	cmp    r9,rax
  403ad2:	75 ac                	jne    403a80 <lin_solve+0x1340>
  403ad4:	4c 89 e6             	mov    rsi,r12
  403ad7:	83 7c 24 20 01       	cmp    DWORD PTR [rsp+0x20],0x1
  403adc:	4c 8b a4 24 08 01 00 00 	mov    r12,QWORD PTR [rsp+0x108]
  403ae4:	4c 8b 4c 24 58       	mov    r9,QWORD PTR [rsp+0x58]
  403ae9:	48 8b 5c 24 18       	mov    rbx,QWORD PTR [rsp+0x18]
  403aee:	48 8b 7c 24 40       	mov    rdi,QWORD PTR [rsp+0x40]
  403af3:	0f 84 37 fb ff ff    	je     403630 <lin_solve+0xef0>
  403af9:	48 8b 6c 24 68       	mov    rbp,QWORD PTR [rsp+0x68]
  403afe:	48 85 ed             	test   rbp,rbp
  403b01:	0f 84 fa 00 00 00    	je     403c01 <lin_solve+0x14c1>
  403b07:	4c 89 6c 24 30       	mov    QWORD PTR [rsp+0x30],r13
  403b0c:	31 c9                	xor    ecx,ecx
  403b0e:	4c 8b 2c 24          	mov    r13,QWORD PTR [rsp]
  403b12:	66 66 66 66 66 2e 0f 1f 84 00 00 00 00 00 	data16 data16 data16 data16 cs nop WORD PTR [rax+rax*1+0x0]
  403b20:	41 8d 04 08          	lea    eax,[r8+rcx*1]
  403b24:	c5 f9 6e c0          	vmovd  xmm0,eax
  403b28:	c4 e2 79 58 c0       	vpbroadcastd xmm0,xmm0
  403b2d:	c5 f9 fe cd          	vpaddd xmm1,xmm0,xmm5
  403b31:	c5 b9 fe c0          	vpaddd xmm0,xmm8,xmm0
  403b35:	c4 e2 7d 35 c9       	vpmovzxdq ymm1,xmm1
  403b3a:	c4 e2 7d 35 c0       	vpmovzxdq ymm0,xmm0
  403b3f:	c5 f5 73 f1 02       	vpsllq ymm1,ymm1,0x2
  403b44:	c5 fd 73 f0 02       	vpsllq ymm0,ymm0,0x2
  403b49:	c5 9d d4 c9          	vpaddq ymm1,ymm12,ymm1
  403b4d:	c5 9d d4 c0          	vpaddq ymm0,ymm12,ymm0
  403b51:	c4 e1 f9 7e c8       	vmovq  rax,xmm1
  403b56:	c4 e3 f9 16 ca 01    	vpextrq rdx,xmm1,0x1
  403b5c:	c4 e3 7d 39 c9 01    	vextracti128 xmm1,ymm1,0x1
  403b62:	c5 fa 10 10          	vmovss xmm2,DWORD PTR [rax]
  403b66:	c4 e3 69 21 12 10    	vinsertps xmm2,xmm2,DWORD PTR [rdx],0x10
  403b6c:	c4 e1 f9 7e c8       	vmovq  rax,xmm1
  403b71:	c4 e3 f9 16 ca 01    	vpextrq rdx,xmm1,0x1
  403b77:	c4 e3 69 21 08 20    	vinsertps xmm1,xmm2,DWORD PTR [rax],0x20
  403b7d:	c4 e1 f9 7e c0       	vmovq  rax,xmm0
  403b82:	c5 fa 10 10          	vmovss xmm2,DWORD PTR [rax]
  403b86:	c4 e3 f9 16 c0 01    	vpextrq rax,xmm0,0x1
  403b8c:	c4 e3 7d 39 c0 01    	vextracti128 xmm0,ymm0,0x1
  403b92:	c4 e3 71 21 0a 30    	vinsertps xmm1,xmm1,DWORD PTR [rdx],0x30
  403b98:	8d 14 0f             	lea    edx,[rdi+rcx*1]
  403b9b:	c4 e3 69 21 10 10    	vinsertps xmm2,xmm2,DWORD PTR [rax],0x10
  403ba1:	c4 e1 f9 7e c0       	vmovq  rax,xmm0
  403ba6:	c4 e3 69 21 10 20    	vinsertps xmm2,xmm2,DWORD PTR [rax],0x20
  403bac:	c4 e3 f9 16 c0 01    	vpextrq rax,xmm0,0x1
  403bb2:	c4 e3 69 21 00 30    	vinsertps xmm0,xmm2,DWORD PTR [rax],0x30
  403bb8:	41 8d 44 0d 00       	lea    eax,[r13+rcx*1+0x0]
  403bbd:	48 83 c1 04          	add    rcx,0x4
  403bc1:	48 98                	cdqe
  403bc3:	c4 c1 78 58 04 87    	vaddps xmm0,xmm0,XMMWORD PTR [r15+rax*4]
  403bc9:	48 63 c2             	movsxd rax,edx
  403bcc:	c4 c1 70 58 0c 87    	vaddps xmm1,xmm1,XMMWORD PTR [r15+rax*4]
  403bd2:	c5 f8 58 c1          	vaddps xmm0,xmm0,xmm1
  403bd6:	c4 e2 31 a8 04 86    	vfmadd213ps xmm0,xmm9,XMMWORD PTR [rsi+rax*4]
  403bdc:	c5 a8 59 c0          	vmulps xmm0,xmm10,xmm0
  403be0:	c4 c1 78 11 04 86    	vmovups XMMWORD PTR [r14+rax*4],xmm0
  403be6:	48 39 e9             	cmp    rcx,rbp
  403be9:	0f 82 31 ff ff ff    	jb     403b20 <lin_solve+0x13e0>
  403bef:	4c 8b 6c 24 30       	mov    r13,QWORD PTR [rsp+0x30]
  403bf4:	48 89 e8             	mov    rax,rbp
  403bf7:	4c 39 cd             	cmp    rbp,r9
  403bfa:	75 14                	jne    403c10 <lin_solve+0x14d0>
  403bfc:	e9 2f fa ff ff       	jmp    403630 <lin_solve+0xef0>
  403c01:	31 c0                	xor    eax,eax
  403c03:	66 66 66 66 2e 0f 1f 84 00 00 00 00 00 	data16 data16 data16 cs nop WORD PTR [rax+rax*1+0x0]
  403c10:	8d 6c 07 01          	lea    ebp,[rdi+rax*1+0x1]
  403c14:	41 8d 0c 00          	lea    ecx,[r8+rax*1]
  403c18:	8d 14 07             	lea    edx,[rdi+rax*1]
  403c1b:	c4 c1 7a 10 04 8f    	vmovss xmm0,DWORD PTR [r15+rcx*4]
  403c21:	48 63 d2             	movsxd rdx,edx
  403c24:	48 63 cd             	movsxd rcx,ebp
  403c27:	c4 c1 7a 58 04 97    	vaddss xmm0,xmm0,DWORD PTR [r15+rdx*4]
  403c2d:	c4 c1 7a 10 0c 8f    	vmovss xmm1,DWORD PTR [r15+rcx*4]
  403c33:	8d 0c 03             	lea    ecx,[rbx+rax*1]
  403c36:	48 ff c0             	inc    rax
  403c39:	c4 c1 72 58 0c 8f    	vaddss xmm1,xmm1,DWORD PTR [r15+rcx*4]
  403c3f:	c5 f2 58 c0          	vaddss xmm0,xmm1,xmm0
  403c43:	c4 e2 21 a9 04 96    	vfmadd213ss xmm0,xmm11,DWORD PTR [rsi+rdx*4]
  403c49:	c5 fa 59 c7          	vmulss xmm0,xmm0,xmm7
  403c4d:	c4 c1 7a 11 04 96    	vmovss DWORD PTR [r14+rdx*4],xmm0
  403c53:	49 39 c1             	cmp    r9,rax
  403c56:	75 b8                	jne    403c10 <lin_solve+0x14d0>
  403c58:	e9 d3 f9 ff ff       	jmp    403630 <lin_solve+0xef0>
  403c5d:	48 81 c4 b8 01 00 00 	add    rsp,0x1b8
  403c64:	5b                   	pop    rbx
  403c65:	41 5c                	pop    r12
  403c67:	41 5d                	pop    r13
  403c69:	41 5e                	pop    r14
  403c6b:	41 5f                	pop    r15
  403c6d:	5d                   	pop    rbp
  403c6e:	c5 f8 77             	vzeroupper
  403c71:	c3                   	ret
  403c72:	31 ff                	xor    edi,edi
  403c74:	89 de                	mov    esi,ebx
  403c76:	4c 89 fa             	mov    rdx,r15
  403c79:	e8 f2 00 00 00       	call   403d70 <set_bnd>
  403c7e:	31 ff                	xor    edi,edi
  403c80:	89 de                	mov    esi,ebx
  403c82:	4c 89 fa             	mov    rdx,r15
  403c85:	e8 e6 00 00 00       	call   403d70 <set_bnd>
  403c8a:	31 ff                	xor    edi,edi
  403c8c:	89 de                	mov    esi,ebx
  403c8e:	4c 89 fa             	mov    rdx,r15
  403c91:	e8 da 00 00 00       	call   403d70 <set_bnd>
  403c96:	31 ff                	xor    edi,edi
  403c98:	89 de                	mov    esi,ebx
  403c9a:	4c 89 fa             	mov    rdx,r15
  403c9d:	e8 ce 00 00 00       	call   403d70 <set_bnd>
  403ca2:	31 ff                	xor    edi,edi
  403ca4:	89 de                	mov    esi,ebx
  403ca6:	4c 89 fa             	mov    rdx,r15
  403ca9:	e8 c2 00 00 00       	call   403d70 <set_bnd>
  403cae:	31 ff                	xor    edi,edi
  403cb0:	89 de                	mov    esi,ebx
  403cb2:	4c 89 fa             	mov    rdx,r15
  403cb5:	e8 b6 00 00 00       	call   403d70 <set_bnd>
  403cba:	31 ff                	xor    edi,edi
  403cbc:	89 de                	mov    esi,ebx
  403cbe:	4c 89 fa             	mov    rdx,r15
  403cc1:	e8 aa 00 00 00       	call   403d70 <set_bnd>
  403cc6:	31 ff                	xor    edi,edi
  403cc8:	89 de                	mov    esi,ebx
  403cca:	4c 89 fa             	mov    rdx,r15
  403ccd:	e8 9e 00 00 00       	call   403d70 <set_bnd>
  403cd2:	31 ff                	xor    edi,edi
  403cd4:	89 de                	mov    esi,ebx
  403cd6:	4c 89 fa             	mov    rdx,r15
  403cd9:	e8 92 00 00 00       	call   403d70 <set_bnd>
  403cde:	31 ff                	xor    edi,edi
  403ce0:	89 de                	mov    esi,ebx
  403ce2:	4c 89 fa             	mov    rdx,r15
  403ce5:	e8 86 00 00 00       	call   403d70 <set_bnd>
  403cea:	31 ff                	xor    edi,edi
  403cec:	89 de                	mov    esi,ebx
  403cee:	4c 89 fa             	mov    rdx,r15
  403cf1:	e8 7a 00 00 00       	call   403d70 <set_bnd>
  403cf6:	31 ff                	xor    edi,edi
  403cf8:	89 de                	mov    esi,ebx
  403cfa:	4c 89 fa             	mov    rdx,r15
  403cfd:	e8 6e 00 00 00       	call   403d70 <set_bnd>
  403d02:	31 ff                	xor    edi,edi
  403d04:	89 de                	mov    esi,ebx
  403d06:	4c 89 fa             	mov    rdx,r15
  403d09:	e8 62 00 00 00       	call   403d70 <set_bnd>
  403d0e:	31 ff                	xor    edi,edi
  403d10:	89 de                	mov    esi,ebx
  403d12:	4c 89 fa             	mov    rdx,r15
  403d15:	e8 56 00 00 00       	call   403d70 <set_bnd>
  403d1a:	31 ff                	xor    edi,edi
  403d1c:	89 de                	mov    esi,ebx
  403d1e:	4c 89 fa             	mov    rdx,r15
  403d21:	e8 4a 00 00 00       	call   403d70 <set_bnd>
  403d26:	31 ff                	xor    edi,edi
  403d28:	89 de                	mov    esi,ebx
  403d2a:	4c 89 fa             	mov    rdx,r15
  403d2d:	e8 3e 00 00 00       	call   403d70 <set_bnd>
  403d32:	31 ff                	xor    edi,edi
  403d34:	89 de                	mov    esi,ebx
  403d36:	4c 89 fa             	mov    rdx,r15
  403d39:	e8 32 00 00 00       	call   403d70 <set_bnd>
  403d3e:	31 ff                	xor    edi,edi
  403d40:	89 de                	mov    esi,ebx
  403d42:	4c 89 fa             	mov    rdx,r15
  403d45:	e8 26 00 00 00       	call   403d70 <set_bnd>
  403d4a:	31 ff                	xor    edi,edi
  403d4c:	89 de                	mov    esi,ebx
  403d4e:	4c 89 fa             	mov    rdx,r15
  403d51:	e8 1a 00 00 00       	call   403d70 <set_bnd>
  403d56:	31 ff                	xor    edi,edi
  403d58:	89 de                	mov    esi,ebx
  403d5a:	4c 89 fa             	mov    rdx,r15
  403d5d:	48 81 c4 b8 01 00 00 	add    rsp,0x1b8
  403d64:	5b                   	pop    rbx
  403d65:	41 5c                	pop    r12
  403d67:	41 5d                	pop    r13
  403d69:	41 5e                	pop    r14
  403d6b:	41 5f                	pop    r15
  403d6d:	5d                   	pop    rbp
  403d6e:	eb 00                	jmp    403d70 <set_bnd>

0000000000403d70 <set_bnd>:
  403d70:	55                   	push   rbp
  403d71:	41 57                	push   r15
  403d73:	41 56                	push   r14
  403d75:	41 55                	push   r13
  403d77:	41 54                	push   r12
  403d79:	53                   	push   rbx
  403d7a:	48 81 ec 70 01 00 00 	sub    rsp,0x170
  403d81:	44 8d 77 02          	lea    r14d,[rdi+0x2]
  403d85:	41 89 fa             	mov    r10d,edi
  403d88:	4c 89 d3             	mov    rbx,r10
  403d8b:	48 d1 eb             	shr    rbx,1
  403d8e:	4d 89 f4             	mov    r12,r14
  403d91:	49 d1 ec             	shr    r12,1
  403d94:	85 ff                	test   edi,edi
  403d96:	0f 84 56 01 00 00    	je     403ef2 <set_bnd+0x182>
  403d9c:	ff c7                	inc    edi
  403d9e:	4d 8d 46 01          	lea    r8,[r14+0x1]
  403da2:	49 89 fb             	mov    r11,rdi
  403da5:	49 d1 eb             	shr    r11,1
  403da8:	4c 89 5c 24 c0       	mov    QWORD PTR [rsp-0x40],r11
  403dad:	83 fe 01             	cmp    esi,0x1
  403db0:	0f 84 4f 01 00 00    	je     403f05 <set_bnd+0x195>
  403db6:	48 8d 47 fe          	lea    rax,[rdi-0x2]
  403dba:	48 8d 4f ff          	lea    rcx,[rdi-0x1]
  403dbe:	48 89 5c 24 98       	mov    QWORD PTR [rsp-0x68],rbx
  403dc3:	83 fe 02             	cmp    esi,0x2
  403dc6:	0f 85 7b 02 00 00    	jne    404047 <set_bnd+0x2d7>
  403dcc:	41 89 cd             	mov    r13d,ecx
  403dcf:	41 83 e5 07          	and    r13d,0x7
  403dd3:	48 89 4c 24 88       	mov    QWORD PTR [rsp-0x78],rcx
  403dd8:	4c 89 44 24 b0       	mov    QWORD PTR [rsp-0x50],r8
  403ddd:	48 83 f8 07          	cmp    rax,0x7
  403de1:	0f 83 88 02 00 00    	jae    40406f <set_bnd+0x2ff>
  403de7:	b8 01 00 00 00       	mov    eax,0x1
  403dec:	45 31 ff             	xor    r15d,r15d
  403def:	4d 85 ed             	test   r13,r13
  403df2:	0f 84 0d 0b 00 00    	je     404905 <set_bnd+0xb95>
  403df8:	c4 e2 79 18 05 fb 93 00 00 	vbroadcastss xmm0,DWORD PTR [rip+0x93fb]        # 40d1fc <_IO_stdin_used+0x1fc>
  403e01:	4c 8b 44 24 98       	mov    r8,QWORD PTR [rsp-0x68]
  403e06:	66 2e 0f 1f 84 00 00 00 00 00 	cs nop WORD PTR [rax+rax*1+0x0]
  403e10:	44 89 f9             	mov    ecx,r15d
  403e13:	83 e1 01             	and    ecx,0x1
  403e16:	4d 8d 4f 01          	lea    r9,[r15+0x1]
  403e1a:	4d 89 d3             	mov    r11,r10
  403e1d:	be 01 00 00 00       	mov    esi,0x1
  403e22:	f7 d9                	neg    ecx
  403e24:	44 89 cd             	mov    ebp,r9d
  403e27:	44 31 d5             	xor    ebp,r10d
  403e2a:	41 ba 00 00 00 00    	mov    r10d,0x0
  403e30:	44 21 f1             	and    ecx,r14d
  403e33:	83 e5 01             	and    ebp,0x1
  403e36:	48 01 c1             	add    rcx,rax
  403e39:	f7 dd                	neg    ebp
  403e3b:	49 0f af cc          	imul   rcx,r12
  403e3f:	44 21 f5             	and    ebp,r14d
  403e42:	41 f6 c7 01          	test   r15b,0x1
  403e46:	4d 0f 44 d6          	cmove  r10,r14
  403e4a:	49 8d 1c 02          	lea    rbx,[r10+rax*1]
  403e4e:	c5 fa 10 0c 8a       	vmovss xmm1,DWORD PTR [rdx+rcx*4]
  403e53:	48 8b 4c 24 b0       	mov    rcx,QWORD PTR [rsp-0x50]
  403e58:	48 0f 44 ce          	cmove  rcx,rsi
  403e5c:	49 0f af dc          	imul   rbx,r12
  403e60:	4d 0f af d4          	imul   r10,r12
  403e64:	49 0f af cc          	imul   rcx,r12
  403e68:	c5 fa 11 0c 9a       	vmovss DWORD PTR [rdx+rbx*4],xmm1
  403e6d:	48 8d 5c 05 00       	lea    rbx,[rbp+rax*1+0x0]
  403e72:	4c 01 dd             	add    rbp,r11
  403e75:	49 0f af dc          	imul   rbx,r12
  403e79:	49 0f af ec          	imul   rbp,r12
  403e7d:	4c 01 c3             	add    rbx,r8
  403e80:	c5 fa 10 0c 9a       	vmovss xmm1,DWORD PTR [rdx+rbx*4]
  403e85:	89 fb                	mov    ebx,edi
  403e87:	44 31 cb             	xor    ebx,r9d
  403e8a:	83 e3 01             	and    ebx,0x1
  403e8d:	f7 db                	neg    ebx
  403e8f:	44 21 f3             	and    ebx,r14d
  403e92:	48 8d 34 03          	lea    rsi,[rbx+rax*1]
  403e96:	48 d1 e8             	shr    rax,1
  403e99:	48 01 fb             	add    rbx,rdi
  403e9c:	49 0f af f4          	imul   rsi,r12
  403ea0:	48 03 74 24 c0       	add    rsi,QWORD PTR [rsp-0x40]
  403ea5:	48 01 c1             	add    rcx,rax
  403ea8:	49 01 c2             	add    r10,rax
  403eab:	48 01 c5             	add    rbp,rax
  403eae:	49 0f af dc          	imul   rbx,r12
  403eb2:	48 01 c3             	add    rbx,rax
  403eb5:	4c 89 f8             	mov    rax,r15
  403eb8:	48 83 c0 02          	add    rax,0x2
  403ebc:	49 ff cd             	dec    r13
  403ebf:	4d 89 cf             	mov    r15,r9
  403ec2:	c5 fa 11 0c b2       	vmovss DWORD PTR [rdx+rsi*4],xmm1
  403ec7:	c5 fa 10 0c 8a       	vmovss xmm1,DWORD PTR [rdx+rcx*4]
  403ecc:	c5 f0 57 c8          	vxorps xmm1,xmm1,xmm0
  403ed0:	c4 a1 7a 11 0c 92    	vmovss DWORD PTR [rdx+r10*4],xmm1
  403ed6:	4d 89 da             	mov    r10,r11
  403ed9:	c5 fa 10 0c aa       	vmovss xmm1,DWORD PTR [rdx+rbp*4]
  403ede:	c5 f0 57 c8          	vxorps xmm1,xmm1,xmm0
  403ee2:	c5 fa 11 0c 9a       	vmovss DWORD PTR [rdx+rbx*4],xmm1
  403ee7:	0f 85 23 ff ff ff    	jne    403e10 <set_bnd+0xa0>
  403eed:	e9 48 01 00 00       	jmp    40403a <set_bnd+0x2ca>
  403ef2:	41 b8 03 00 00 00    	mov    r8d,0x3
  403ef8:	bf 01 00 00 00       	mov    edi,0x1
  403efd:	45 31 db             	xor    r11d,r11d
  403f00:	e9 6c 1c 00 00       	jmp    405b71 <set_bnd+0x1e01>
  403f05:	48 8d 4f ff          	lea    rcx,[rdi-0x1]
  403f09:	48 8d 47 fe          	lea    rax,[rdi-0x2]
  403f0d:	4c 89 74 24 c8       	mov    QWORD PTR [rsp-0x38],r14
  403f12:	4c 89 44 24 b0       	mov    QWORD PTR [rsp-0x50],r8
  403f17:	48 89 8c 24 08 01 00 00 	mov    QWORD PTR [rsp+0x108],rcx
  403f1f:	83 e1 07             	and    ecx,0x7
  403f22:	48 83 f8 07          	cmp    rax,0x7
  403f26:	0f 83 e8 09 00 00    	jae    404914 <set_bnd+0xba4>
  403f2c:	b8 01 00 00 00       	mov    eax,0x1
  403f31:	45 31 c9             	xor    r9d,r9d
  403f34:	48 85 c9             	test   rcx,rcx
  403f37:	0f 84 99 12 00 00    	je     4051d6 <set_bnd+0x1466>
  403f3d:	c4 e2 79 18 05 b6 92 00 00 	vbroadcastss xmm0,DWORD PTR [rip+0x92b6]        # 40d1fc <_IO_stdin_used+0x1fc>
  403f46:	4c 8b 6c 24 c8       	mov    r13,QWORD PTR [rsp-0x38]
  403f4b:	49 89 d8             	mov    r8,rbx
  403f4e:	66 90                	xchg   ax,ax
  403f50:	4d 89 e6             	mov    r14,r12
  403f53:	4d 89 cf             	mov    r15,r9
  403f56:	49 89 cc             	mov    r12,rcx
  403f59:	44 89 f9             	mov    ecx,r15d
  403f5c:	83 e1 01             	and    ecx,0x1
  403f5f:	49 ff c1             	inc    r9
  403f62:	4d 89 d3             	mov    r11,r10
  403f65:	bb 01 00 00 00       	mov    ebx,0x1
  403f6a:	f7 d9                	neg    ecx
  403f6c:	44 89 ce             	mov    esi,r9d
  403f6f:	44 31 d6             	xor    esi,r10d
  403f72:	41 ba 00 00 00 00    	mov    r10d,0x0
  403f78:	44 21 e9             	and    ecx,r13d
  403f7b:	83 e6 01             	and    esi,0x1
  403f7e:	48 01 c1             	add    rcx,rax
  403f81:	f7 de                	neg    esi
  403f83:	49 0f af ce          	imul   rcx,r14
  403f87:	44 21 ee             	and    esi,r13d
  403f8a:	41 f6 c7 01          	test   r15b,0x1
  403f8e:	4d 0f 44 d5          	cmove  r10,r13
  403f92:	c5 fa 10 0c 8a       	vmovss xmm1,DWORD PTR [rdx+rcx*4]
  403f97:	48 8b 4c 24 b0       	mov    rcx,QWORD PTR [rsp-0x50]
  403f9c:	48 0f 44 cb          	cmove  rcx,rbx
  403fa0:	49 8d 1c 02          	lea    rbx,[r10+rax*1]
  403fa4:	4d 0f af d6          	imul   r10,r14
  403fa8:	49 0f af de          	imul   rbx,r14
  403fac:	49 0f af ce          	imul   rcx,r14
  403fb0:	c5 f0 57 c8          	vxorps xmm1,xmm1,xmm0
  403fb4:	c5 fa 11 0c 9a       	vmovss DWORD PTR [rdx+rbx*4],xmm1
  403fb9:	48 8d 1c 06          	lea    rbx,[rsi+rax*1]
  403fbd:	4c 01 de             	add    rsi,r11
  403fc0:	49 0f af de          	imul   rbx,r14
  403fc4:	49 0f af f6          	imul   rsi,r14
  403fc8:	4c 01 c3             	add    rbx,r8
  403fcb:	c5 fa 10 0c 9a       	vmovss xmm1,DWORD PTR [rdx+rbx*4]
  403fd0:	89 fb                	mov    ebx,edi
  403fd2:	44 31 cb             	xor    ebx,r9d
  403fd5:	83 e3 01             	and    ebx,0x1
  403fd8:	f7 db                	neg    ebx
  403fda:	44 21 eb             	and    ebx,r13d
  403fdd:	48 8d 2c 03          	lea    rbp,[rbx+rax*1]
  403fe1:	48 d1 e8             	shr    rax,1
  403fe4:	48 01 fb             	add    rbx,rdi
  403fe7:	49 0f af ee          	imul   rbp,r14
  403feb:	48 03 6c 24 c0       	add    rbp,QWORD PTR [rsp-0x40]
  403ff0:	48 01 c1             	add    rcx,rax
  403ff3:	49 01 c2             	add    r10,rax
  403ff6:	48 01 c6             	add    rsi,rax
  403ff9:	49 0f af de          	imul   rbx,r14
  403ffd:	c5 f0 57 c8          	vxorps xmm1,xmm1,xmm0
  404001:	48 01 c3             	add    rbx,rax
  404004:	4c 89 f8             	mov    rax,r15
  404007:	48 83 c0 02          	add    rax,0x2
  40400b:	c5 fa 11 0c aa       	vmovss DWORD PTR [rdx+rbp*4],xmm1
  404010:	c5 fa 10 0c 8a       	vmovss xmm1,DWORD PTR [rdx+rcx*4]
  404015:	4c 89 e1             	mov    rcx,r12
  404018:	48 ff c9             	dec    rcx
  40401b:	4d 89 f4             	mov    r12,r14
  40401e:	c4 a1 7a 11 0c 92    	vmovss DWORD PTR [rdx+r10*4],xmm1
  404024:	4d 89 da             	mov    r10,r11
  404027:	c5 fa 10 0c b2       	vmovss xmm1,DWORD PTR [rdx+rsi*4]
  40402c:	c5 fa 11 0c 9a       	vmovss DWORD PTR [rdx+rbx*4],xmm1
  404031:	0f 85 19 ff ff ff    	jne    403f50 <set_bnd+0x1e0>
  404037:	4d 89 ee             	mov    r14,r13
  40403a:	4c 89 c3             	mov    rbx,r8
  40403d:	4c 8b 44 24 b0       	mov    r8,QWORD PTR [rsp-0x50]
  404042:	e9 25 1b 00 00       	jmp    405b6c <set_bnd+0x1dfc>
  404047:	48 89 4c 24 90       	mov    QWORD PTR [rsp-0x70],rcx
  40404c:	83 e1 07             	and    ecx,0x7
  40404f:	48 83 f8 07          	cmp    rax,0x7
  404053:	0f 83 8c 11 00 00    	jae    4051e5 <set_bnd+0x1475>
  404059:	b8 01 00 00 00       	mov    eax,0x1
  40405e:	45 31 ed             	xor    r13d,r13d
  404061:	48 85 c9             	test   rcx,rcx
  404064:	0f 85 16 1a 00 00    	jne    405a80 <set_bnd+0x1d10>
  40406a:	e9 ec 1b 00 00       	jmp    405c5b <set_bnd+0x1eeb>
  40406f:	48 83 64 24 88 f8    	and    QWORD PTR [rsp-0x78],0xfffffffffffffff8
  404075:	45 31 ff             	xor    r15d,r15d
  404078:	41 f6 c2 01          	test   r10b,0x1
  40407c:	41 b9 00 00 00 00    	mov    r9d,0x0
  404082:	be 00 00 00 00       	mov    esi,0x0
  404087:	89 f8                	mov    eax,edi
  404089:	4c 89 db             	mov    rbx,r11
  40408c:	48 8d 1c 9d 00 00 00 00 	lea    rbx,[rbx*4+0x0]
  404094:	4c 89 ac 24 68 01 00 00 	mov    QWORD PTR [rsp+0x168],r13
  40409c:	4d 89 d5             	mov    r13,r10
  40409f:	48 89 bc 24 18 01 00 00 	mov    QWORD PTR [rsp+0x118],rdi
  4040a7:	44 89 ed             	mov    ebp,r13d
  4040aa:	4d 89 c3             	mov    r11,r8
  4040ad:	c4 e2 79 18 05 46 91 00 00 	vbroadcastss xmm0,DWORD PTR [rip+0x9146]        # 40d1fc <_IO_stdin_used+0x1fc>
  4040b6:	4c 89 74 24 c8       	mov    QWORD PTR [rsp-0x38],r14
  4040bb:	4c 89 ac 24 f8 00 00 00 	mov    QWORD PTR [rsp+0xf8],r13
  4040c3:	4c 89 a4 24 20 01 00 00 	mov    QWORD PTR [rsp+0x120],r12
  4040cb:	4d 0f 44 ce          	cmove  r9,r14
  4040cf:	40 f6 c7 01          	test   dil,0x1
  4040d3:	49 0f 44 f6          	cmove  rsi,r14
  4040d7:	83 e0 01             	and    eax,0x1
  4040da:	83 e5 01             	and    ebp,0x1
  4040dd:	f7 d8                	neg    eax
  4040df:	4c 8d 14 3e          	lea    r10,[rsi+rdi*1]
  4040e3:	f7 dd                	neg    ebp
  4040e5:	44 21 f0             	and    eax,r14d
  4040e8:	44 21 f5             	and    ebp,r14d
  4040eb:	4d 0f af d4          	imul   r10,r12
  4040ef:	48 8d 0c 38          	lea    rcx,[rax+rdi*1]
  4040f3:	49 8d 79 07          	lea    rdi,[r9+0x7]
  4040f7:	4e 8d 44 2d 00       	lea    r8,[rbp+r13*1+0x0]
  4040fc:	48 89 4c 24 90       	mov    QWORD PTR [rsp-0x70],rcx
  404101:	48 8d 4e 07          	lea    rcx,[rsi+0x7]
  404105:	49 0f af fc          	imul   rdi,r12
  404109:	4d 0f af c4          	imul   r8,r12
  40410d:	49 0f af cc          	imul   rcx,r12
  404111:	48 8d 0c 8b          	lea    rcx,[rbx+rcx*4]
  404115:	48 89 4c 24 a8       	mov    QWORD PTR [rsp-0x58],rcx
  40411a:	48 8d 48 06          	lea    rcx,[rax+0x6]
  40411e:	49 0f af cc          	imul   rcx,r12
  404122:	48 8d 0c 8b          	lea    rcx,[rbx+rcx*4]
  404126:	48 89 4c 24 a0       	mov    QWORD PTR [rsp-0x60],rcx
  40412b:	48 8d 4e 05          	lea    rcx,[rsi+0x5]
  40412f:	49 0f af cc          	imul   rcx,r12
  404133:	48 8d 0c 8b          	lea    rcx,[rbx+rcx*4]
  404137:	48 89 8c 24 f0 00 00 00 	mov    QWORD PTR [rsp+0xf0],rcx
  40413f:	48 8d 48 04          	lea    rcx,[rax+0x4]
  404143:	49 0f af cc          	imul   rcx,r12
  404147:	48 8d 0c 8b          	lea    rcx,[rbx+rcx*4]
  40414b:	48 89 8c 24 d8 00 00 00 	mov    QWORD PTR [rsp+0xd8],rcx
  404153:	48 8d 4e 03          	lea    rcx,[rsi+0x3]
  404157:	48 ff c6             	inc    rsi
  40415a:	49 0f af cc          	imul   rcx,r12
  40415e:	49 0f af f4          	imul   rsi,r12
  404162:	48 8d 0c 8b          	lea    rcx,[rbx+rcx*4]
  404166:	48 89 8c 24 c0 00 00 00 	mov    QWORD PTR [rsp+0xc0],rcx
  40416e:	48 8d 48 02          	lea    rcx,[rax+0x2]
  404172:	48 83 c0 08          	add    rax,0x8
  404176:	49 0f af c4          	imul   rax,r12
  40417a:	49 0f af cc          	imul   rcx,r12
  40417e:	48 8d 04 83          	lea    rax,[rbx+rax*4]
  404182:	48 8d 0c 8b          	lea    rcx,[rbx+rcx*4]
  404186:	48 89 84 24 e8 00 00 00 	mov    QWORD PTR [rsp+0xe8],rax
  40418e:	48 8b 44 24 98       	mov    rax,QWORD PTR [rsp-0x68]
  404193:	48 89 4c 24 60       	mov    QWORD PTR [rsp+0x60],rcx
  404198:	48 8d 0c b3          	lea    rcx,[rbx+rsi*4]
  40419c:	4b 8d 1c 29          	lea    rbx,[r9+r13*1]
  4041a0:	48 8b 74 24 90       	mov    rsi,QWORD PTR [rsp-0x70]
  4041a5:	4d 89 e5             	mov    r13,r12
  4041a8:	49 c1 e5 05          	shl    r13,0x5
  4041ac:	49 0f af dc          	imul   rbx,r12
  4041b0:	4c 89 6c 24 d8       	mov    QWORD PTR [rsp-0x28],r13
  4041b5:	48 89 4c 24 10       	mov    QWORD PTR [rsp+0x10],rcx
  4041ba:	48 8d 0c 85 00 00 00 00 	lea    rcx,[rax*4+0x0]
  4041c2:	49 0f af f4          	imul   rsi,r12
  4041c6:	48 8d 04 b9          	lea    rax,[rcx+rdi*4]
  4041ca:	48 8d 7d 06          	lea    rdi,[rbp+0x6]
  4041ce:	49 0f af fc          	imul   rdi,r12
  4041d2:	48 89 84 24 e0 00 00 00 	mov    QWORD PTR [rsp+0xe0],rax
  4041da:	48 8d 04 b9          	lea    rax,[rcx+rdi*4]
  4041de:	49 8d 79 05          	lea    rdi,[r9+0x5]
  4041e2:	49 0f af fc          	imul   rdi,r12
  4041e6:	48 89 84 24 d0 00 00 00 	mov    QWORD PTR [rsp+0xd0],rax
  4041ee:	48 8d 04 b9          	lea    rax,[rcx+rdi*4]
  4041f2:	48 8d 7d 04          	lea    rdi,[rbp+0x4]
  4041f6:	49 0f af fc          	imul   rdi,r12
  4041fa:	48 89 84 24 c8 00 00 00 	mov    QWORD PTR [rsp+0xc8],rax
  404202:	48 8d 04 b9          	lea    rax,[rcx+rdi*4]
  404206:	49 8d 79 03          	lea    rdi,[r9+0x3]
  40420a:	49 ff c1             	inc    r9
  40420d:	49 0f af fc          	imul   rdi,r12
  404211:	4d 0f af cc          	imul   r9,r12
  404215:	48 89 84 24 b8 00 00 00 	mov    QWORD PTR [rsp+0xb8],rax
  40421d:	48 8d 04 b9          	lea    rax,[rcx+rdi*4]
  404221:	48 8d 7d 02          	lea    rdi,[rbp+0x2]
  404225:	48 83 c5 08          	add    rbp,0x8
  404229:	49 0f af fc          	imul   rdi,r12
  40422d:	49 0f af ec          	imul   rbp,r12
  404231:	48 89 44 24 78       	mov    QWORD PTR [rsp+0x78],rax
  404236:	48 8d 04 b9          	lea    rax,[rcx+rdi*4]
  40423a:	48 89 44 24 40       	mov    QWORD PTR [rsp+0x40],rax
  40423f:	4a 8d 04 89          	lea    rax,[rcx+r9*4]
  404243:	4d 89 e1             	mov    r9,r12
  404246:	4d 0f af cb          	imul   r9,r11
  40424a:	48 89 04 24          	mov    QWORD PTR [rsp],rax
  40424e:	48 8d 04 a9          	lea    rax,[rcx+rbp*4]
  404252:	4b 8d 0c e4          	lea    rcx,[r12+r12*8]
  404256:	49 8d 6e 03          	lea    rbp,[r14+0x3]
  40425a:	49 0f af ec          	imul   rbp,r12
  40425e:	48 89 84 24 98 00 00 00 	mov    QWORD PTR [rsp+0x98],rax
  404266:	49 8d 46 07          	lea    rax,[r14+0x7]
  40426a:	48 8d 3c 49          	lea    rdi,[rcx+rcx*2]
  40426e:	4a 8d 0c 85 0c 00 00 00 	lea    rcx,[r8*4+0xc]
  404276:	49 0f af c4          	imul   rax,r12
  40427a:	4c 01 e7             	add    rdi,r12
  40427d:	48 89 4c 24 20       	mov    QWORD PTR [rsp+0x20],rcx
  404282:	4c 89 c9             	mov    rcx,r9
  404285:	48 89 8c 24 00 01 00 00 	mov    QWORD PTR [rsp+0x100],rcx
  40428d:	48 8d 0c 8d 0c 00 00 00 	lea    rcx,[rcx*4+0xc]
  404295:	4e 8d 0c 8d 00 00 00 00 	lea    r9,[r9*4+0x0]
  40429d:	48 c1 e5 02          	shl    rbp,0x2
  4042a1:	48 89 bc 24 a8 00 00 00 	mov    QWORD PTR [rsp+0xa8],rdi
  4042a9:	49 8d 7e 06          	lea    rdi,[r14+0x6]
  4042ad:	48 c1 e0 02          	shl    rax,0x2
  4042b1:	49 0f af fc          	imul   rdi,r12
  4042b5:	48 89 4c 24 b8       	mov    QWORD PTR [rsp-0x48],rcx
  4042ba:	4a 8d 0c e5 00 00 00 00 	lea    rcx,[r12*8+0x0]
  4042c2:	48 89 84 24 b0 00 00 00 	mov    QWORD PTR [rsp+0xb0],rax
  4042ca:	4c 89 e0             	mov    rax,r12
  4042cd:	49 0f af c6          	imul   rax,r14
  4042d1:	4c 8d 1c 49          	lea    r11,[rcx+rcx*2]
  4042d5:	48 c1 e7 02          	shl    rdi,0x2
  4042d9:	48 8d 04 85 0c 00 00 00 	lea    rax,[rax*4+0xc]
  4042e1:	48 89 bc 24 90 00 00 00 	mov    QWORD PTR [rsp+0x90],rdi
  4042e9:	49 8d 7e 04          	lea    rdi,[r14+0x4]
  4042ed:	49 0f af fc          	imul   rdi,r12
  4042f1:	48 89 84 24 a0 00 00 00 	mov    QWORD PTR [rsp+0xa0],rax
  4042f9:	49 8d 46 05          	lea    rax,[r14+0x5]
  4042fd:	49 0f af c4          	imul   rax,r12
  404301:	48 c1 e7 02          	shl    rdi,0x2
  404305:	48 89 bc 24 80 00 00 00 	mov    QWORD PTR [rsp+0x80],rdi
  40430d:	4a 8d 3c 95 0c 00 00 00 	lea    rdi,[r10*4+0xc]
  404315:	48 c1 e0 02          	shl    rax,0x2
  404319:	48 89 84 24 88 00 00 00 	mov    QWORD PTR [rsp+0x88],rax
  404321:	4c 89 e0             	mov    rax,r12
  404324:	48 c1 e0 04          	shl    rax,0x4
  404328:	48 89 7c 24 70       	mov    QWORD PTR [rsp+0x70],rdi
  40432d:	4a 8d 3c 95 04 00 00 00 	lea    rdi,[r10*4+0x4]
  404335:	48 89 44 24 58       	mov    QWORD PTR [rsp+0x58],rax
  40433a:	4a 8d 04 95 00 00 00 00 	lea    rax,[r10*4+0x0]
  404342:	48 89 7c 24 48       	mov    QWORD PTR [rsp+0x48],rdi
  404347:	48 8d 3c 9d 04 00 00 00 	lea    rdi,[rbx*4+0x4]
  40434f:	48 89 44 24 f0       	mov    QWORD PTR [rsp-0x10],rax
  404354:	4a 8d 04 95 08 00 00 00 	lea    rax,[r10*4+0x8]
  40435c:	4c 8d 14 9d 08 00 00 00 	lea    r10,[rbx*4+0x8]
  404364:	48 89 7c 24 30       	mov    QWORD PTR [rsp+0x30],rdi
  404369:	48 8d 3c b5 0c 00 00 00 	lea    rdi,[rsi*4+0xc]
  404371:	48 89 44 24 68       	mov    QWORD PTR [rsp+0x68],rax
  404376:	48 8d 04 9d 00 00 00 00 	lea    rax,[rbx*4+0x0]
  40437e:	48 89 7c 24 28       	mov    QWORD PTR [rsp+0x28],rdi
  404383:	48 89 44 24 e0       	mov    QWORD PTR [rsp-0x20],rax
  404388:	48 8d 04 9d 0c 00 00 00 	lea    rax,[rbx*4+0xc]
  404390:	4c 89 c3             	mov    rbx,r8
  404393:	4e 8d 04 85 08 00 00 00 	lea    r8,[r8*4+0x8]
  40439b:	48 89 5c 24 d0       	mov    QWORD PTR [rsp-0x30],rbx
  4043a0:	48 89 44 24 50       	mov    QWORD PTR [rsp+0x50],rax
  4043a5:	49 8d 46 02          	lea    rax,[r14+0x2]
  4043a9:	4c 89 44 24 08       	mov    QWORD PTR [rsp+0x8],r8
  4043ae:	49 0f af c4          	imul   rax,r12
  4043b2:	48 c1 e0 02          	shl    rax,0x2
  4043b6:	48 89 44 24 18       	mov    QWORD PTR [rsp+0x18],rax
  4043bb:	49 8d 46 08          	lea    rax,[r14+0x8]
  4043bf:	4e 8d 34 a5 00 00 00 00 	lea    r14,[r12*4+0x0]
  4043c7:	49 0f af c4          	imul   rax,r12
  4043cb:	4b 8d 3c b6          	lea    rdi,[r14+r14*4]
  4043cf:	48 c1 e0 02          	shl    rax,0x2
  4043d3:	48 89 44 24 38       	mov    QWORD PTR [rsp+0x38],rax
  4043d8:	4a 8d 04 a5 0c 00 00 00 	lea    rax,[r12*4+0xc]
  4043e0:	4c 8d 24 b5 08 00 00 00 	lea    r12,[rsi*4+0x8]
  4043e8:	48 89 44 24 80       	mov    QWORD PTR [rsp-0x80],rax
  4043ed:	48 89 f0             	mov    rax,rsi
  4043f0:	4b 8d 34 76          	lea    rsi,[r14+r14*2]
  4043f4:	48 89 44 24 90       	mov    QWORD PTR [rsp-0x70],rax
  4043f9:	48 89 74 24 f8       	mov    QWORD PTR [rsp-0x8],rsi
  4043fe:	48 8d 34 85 04 00 00 00 	lea    rsi,[rax*4+0x4]
  404406:	48 8d 04 9d 04 00 00 00 	lea    rax,[rbx*4+0x4]
  40440e:	48 89 44 24 e8       	mov    QWORD PTR [rsp-0x18],rax
  404413:	66 66 66 66 2e 0f 1f 84 00 00 00 00 00 	data16 data16 data16 cs nop WORD PTR [rax+rax*1+0x0]
  404420:	c4 a1 7a 10 0c 32    	vmovss xmm1,DWORD PTR [rdx+r14*1]
  404426:	48 8b 04 24          	mov    rax,QWORD PTR [rsp]
  40442a:	4c 8b 84 24 a0 00 00 00 	mov    r8,QWORD PTR [rsp+0xa0]
  404432:	48 89 8c 24 48 01 00 00 	mov    QWORD PTR [rsp+0x148],rcx
  40443a:	48 89 ac 24 10 01 00 00 	mov    QWORD PTR [rsp+0x110],rbp
  404442:	4c 89 b4 24 58 01 00 00 	mov    QWORD PTR [rsp+0x158],r14
  40444a:	4c 8b b4 24 d0 00 00 00 	mov    r14,QWORD PTR [rsp+0xd0]
  404452:	48 89 b4 24 28 01 00 00 	mov    QWORD PTR [rsp+0x128],rsi
  40445a:	48 89 bc 24 38 01 00 00 	mov    QWORD PTR [rsp+0x138],rdi
  404462:	4c 89 94 24 60 01 00 00 	mov    QWORD PTR [rsp+0x160],r10
  40446a:	4c 89 8c 24 50 01 00 00 	mov    QWORD PTR [rsp+0x150],r9
  404472:	4c 89 a4 24 30 01 00 00 	mov    QWORD PTR [rsp+0x130],r12
  40447a:	4c 89 9c 24 40 01 00 00 	mov    QWORD PTR [rsp+0x140],r11
  404482:	4c 01 2c 24          	add    QWORD PTR [rsp],r13
  404486:	c4 a1 7a 11 0c 0a    	vmovss DWORD PTR [rdx+r9*1],xmm1
  40448c:	4c 8b 4c 24 70       	mov    r9,QWORD PTR [rsp+0x70]
  404491:	c5 fa 10 0c 02       	vmovss xmm1,DWORD PTR [rdx+rax*1]
  404496:	48 8b 44 24 10       	mov    rax,QWORD PTR [rsp+0x10]
  40449b:	4c 01 6c 24 10       	add    QWORD PTR [rsp+0x10],r13
  4044a0:	c5 fa 11 0c 02       	vmovss DWORD PTR [rdx+rax*1],xmm1
  4044a5:	48 8b 44 24 80       	mov    rax,QWORD PTR [rsp-0x80]
  4044aa:	c5 fa 10 4c 02 f4    	vmovss xmm1,DWORD PTR [rdx+rax*1-0xc]
  4044b0:	48 89 c3             	mov    rbx,rax
  4044b3:	48 8b 44 24 e0       	mov    rax,QWORD PTR [rsp-0x20]
  4044b8:	48 89 5c 24 80       	mov    QWORD PTR [rsp-0x80],rbx
  4044bd:	48 83 44 24 80 10    	add    QWORD PTR [rsp-0x80],0x10
  4044c3:	48 83 44 24 e0 10    	add    QWORD PTR [rsp-0x20],0x10
  4044c9:	c5 f0 57 c8          	vxorps xmm1,xmm1,xmm0
  4044cd:	c4 a1 7a 11 4c 02 f4 	vmovss DWORD PTR [rdx+r8*1-0xc],xmm1
  4044d4:	c5 fa 10 0c 02       	vmovss xmm1,DWORD PTR [rdx+rax*1]
  4044d9:	48 8b 44 24 f0       	mov    rax,QWORD PTR [rsp-0x10]
  4044de:	48 83 44 24 f0 10    	add    QWORD PTR [rsp-0x10],0x10
  4044e4:	c5 f0 57 c8          	vxorps xmm1,xmm1,xmm0
  4044e8:	c5 fa 11 0c 02       	vmovss DWORD PTR [rdx+rax*1],xmm1
  4044ed:	48 8b 44 24 18       	mov    rax,QWORD PTR [rsp+0x18]
  4044f2:	4c 01 6c 24 18       	add    QWORD PTR [rsp+0x18],r13
  4044f7:	c5 fa 10 0c 02       	vmovss xmm1,DWORD PTR [rdx+rax*1]
  4044fc:	48 8b 44 24 40       	mov    rax,QWORD PTR [rsp+0x40]
  404501:	4c 01 6c 24 40       	add    QWORD PTR [rsp+0x40],r13
  404506:	c5 fa 11 0c 0a       	vmovss DWORD PTR [rdx+rcx*1],xmm1
  40450b:	c5 fa 10 0c 02       	vmovss xmm1,DWORD PTR [rdx+rax*1]
  404510:	48 8b 44 24 60       	mov    rax,QWORD PTR [rsp+0x60]
  404515:	4c 01 6c 24 60       	add    QWORD PTR [rsp+0x60],r13
  40451a:	c5 fa 11 0c 02       	vmovss DWORD PTR [rdx+rax*1],xmm1
  40451f:	48 8b 44 24 b8       	mov    rax,QWORD PTR [rsp-0x48]
  404524:	c5 fa 10 4c 02 f8    	vmovss xmm1,DWORD PTR [rdx+rax*1-0x8]
  40452a:	48 89 c1             	mov    rcx,rax
  40452d:	48 8b 44 24 e8       	mov    rax,QWORD PTR [rsp-0x18]
  404532:	48 89 4c 24 b8       	mov    QWORD PTR [rsp-0x48],rcx
  404537:	48 83 44 24 b8 10    	add    QWORD PTR [rsp-0x48],0x10
  40453d:	48 83 44 24 e8 10    	add    QWORD PTR [rsp-0x18],0x10
  404543:	c5 f0 57 c8          	vxorps xmm1,xmm1,xmm0
  404547:	c4 a1 7a 11 4c 7a 04 	vmovss DWORD PTR [rdx+r15*2+0x4],xmm1
  40454e:	c5 fa 10 0c 02       	vmovss xmm1,DWORD PTR [rdx+rax*1]
  404553:	48 8b 44 24 f8       	mov    rax,QWORD PTR [rsp-0x8]
  404558:	4c 01 6c 24 f8       	add    QWORD PTR [rsp-0x8],r13
  40455d:	c5 f0 57 c8          	vxorps xmm1,xmm1,xmm0
  404561:	c5 fa 11 0c 32       	vmovss DWORD PTR [rdx+rsi*1],xmm1
  404566:	48 8b 74 24 28       	mov    rsi,QWORD PTR [rsp+0x28]
  40456b:	c5 fa 10 0c 02       	vmovss xmm1,DWORD PTR [rdx+rax*1]
  404570:	48 8b 44 24 78       	mov    rax,QWORD PTR [rsp+0x78]
  404575:	4c 01 6c 24 78       	add    QWORD PTR [rsp+0x78],r13
  40457a:	c5 fa 11 0c 2a       	vmovss DWORD PTR [rdx+rbp*1],xmm1
  40457f:	48 8b ac 24 90 00 00 00 	mov    rbp,QWORD PTR [rsp+0x90]
  404587:	c5 fa 10 0c 02       	vmovss xmm1,DWORD PTR [rdx+rax*1]
  40458c:	48 8b 84 24 c0 00 00 00 	mov    rax,QWORD PTR [rsp+0xc0]
  404594:	4c 01 ac 24 c0 00 00 00 	add    QWORD PTR [rsp+0xc0],r13
  40459c:	c5 fa 11 0c 02       	vmovss DWORD PTR [rdx+rax*1],xmm1
  4045a1:	48 8b 44 24 30       	mov    rax,QWORD PTR [rsp+0x30]
  4045a6:	48 83 44 24 30 10    	add    QWORD PTR [rsp+0x30],0x10
  4045ac:	c5 fa 10 4c 1a f8    	vmovss xmm1,DWORD PTR [rdx+rbx*1-0x8]
  4045b2:	c5 f0 57 c8          	vxorps xmm1,xmm1,xmm0
  4045b6:	c4 a1 7a 11 4c 02 f8 	vmovss DWORD PTR [rdx+r8*1-0x8],xmm1
  4045bd:	c5 fa 10 0c 02       	vmovss xmm1,DWORD PTR [rdx+rax*1]
  4045c2:	48 8b 44 24 48       	mov    rax,QWORD PTR [rsp+0x48]
  4045c7:	48 83 44 24 48 10    	add    QWORD PTR [rsp+0x48],0x10
  4045cd:	c5 f0 57 c8          	vxorps xmm1,xmm1,xmm0
  4045d1:	c5 fa 11 0c 02       	vmovss DWORD PTR [rdx+rax*1],xmm1
  4045d6:	48 8b 84 24 80 00 00 00 	mov    rax,QWORD PTR [rsp+0x80]
  4045de:	4c 01 ac 24 80 00 00 00 	add    QWORD PTR [rsp+0x80],r13
  4045e6:	c5 fa 10 0c 02       	vmovss xmm1,DWORD PTR [rdx+rax*1]
  4045eb:	48 8b 44 24 58       	mov    rax,QWORD PTR [rsp+0x58]
  4045f0:	4c 01 6c 24 58       	add    QWORD PTR [rsp+0x58],r13
  4045f5:	c5 fa 11 0c 02       	vmovss DWORD PTR [rdx+rax*1],xmm1
  4045fa:	48 8b 84 24 b8 00 00 00 	mov    rax,QWORD PTR [rsp+0xb8]
  404602:	4c 01 ac 24 b8 00 00 00 	add    QWORD PTR [rsp+0xb8],r13
  40460a:	c5 fa 10 0c 02       	vmovss xmm1,DWORD PTR [rdx+rax*1]
  40460f:	48 8b 84 24 d8 00 00 00 	mov    rax,QWORD PTR [rsp+0xd8]
  404617:	4c 01 ac 24 d8 00 00 00 	add    QWORD PTR [rsp+0xd8],r13
  40461f:	c5 fa 11 0c 02       	vmovss DWORD PTR [rdx+rax*1],xmm1
  404624:	48 8b 44 24 08       	mov    rax,QWORD PTR [rsp+0x8]
  404629:	48 83 44 24 08 10    	add    QWORD PTR [rsp+0x8],0x10
  40462f:	c5 fa 10 4c 0a fc    	vmovss xmm1,DWORD PTR [rdx+rcx*1-0x4]
  404635:	c5 f0 57 c8          	vxorps xmm1,xmm1,xmm0
  404639:	c4 a1 7a 11 4c 7a 08 	vmovss DWORD PTR [rdx+r15*2+0x8],xmm1
  404640:	c5 fa 10 0c 02       	vmovss xmm1,DWORD PTR [rdx+rax*1]
  404645:	48 8b 84 24 88 00 00 00 	mov    rax,QWORD PTR [rsp+0x88]
  40464d:	4c 01 ac 24 88 00 00 00 	add    QWORD PTR [rsp+0x88],r13
  404655:	c5 f0 57 c8          	vxorps xmm1,xmm1,xmm0
  404659:	c4 a1 7a 11 0c 22    	vmovss DWORD PTR [rdx+r12*1],xmm1
  40465f:	c5 fa 10 0c 3a       	vmovss xmm1,DWORD PTR [rdx+rdi*1]
  404664:	48 89 df             	mov    rdi,rbx
  404667:	c5 fa 11 0c 02       	vmovss DWORD PTR [rdx+rax*1],xmm1
  40466c:	48 8b 84 24 c8 00 00 00 	mov    rax,QWORD PTR [rsp+0xc8]
  404674:	4c 01 ac 24 c8 00 00 00 	add    QWORD PTR [rsp+0xc8],r13
  40467c:	c5 fa 10 0c 02       	vmovss xmm1,DWORD PTR [rdx+rax*1]
  404681:	48 8b 84 24 f0 00 00 00 	mov    rax,QWORD PTR [rsp+0xf0]
  404689:	4c 01 ac 24 f0 00 00 00 	add    QWORD PTR [rsp+0xf0],r13
  404691:	c5 fa 11 0c 02       	vmovss DWORD PTR [rdx+rax*1],xmm1
  404696:	48 8b 44 24 68       	mov    rax,QWORD PTR [rsp+0x68]
  40469b:	48 83 44 24 68 10    	add    QWORD PTR [rsp+0x68],0x10
  4046a1:	c5 fa 10 4c 1a fc    	vmovss xmm1,DWORD PTR [rdx+rbx*1-0x4]
  4046a7:	4c 89 fb             	mov    rbx,r15
  4046aa:	4c 8d 63 08          	lea    r12,[rbx+0x8]
  4046ae:	4c 89 a4 24 08 01 00 00 	mov    QWORD PTR [rsp+0x108],r12
  4046b6:	49 d1 ec             	shr    r12,1
  4046b9:	c5 f0 57 c8          	vxorps xmm1,xmm1,xmm0
  4046bd:	c4 a1 7a 11 4c 02 fc 	vmovss DWORD PTR [rdx+r8*1-0x4],xmm1
  4046c4:	c4 a1 7a 10 0c 12    	vmovss xmm1,DWORD PTR [rdx+r10*1]
  4046ca:	4c 8b 54 24 a8       	mov    r10,QWORD PTR [rsp-0x58]
  4046cf:	c5 f0 57 c8          	vxorps xmm1,xmm1,xmm0
  4046d3:	c5 fa 11 0c 02       	vmovss DWORD PTR [rdx+rax*1],xmm1
  4046d8:	48 8b 44 24 a0       	mov    rax,QWORD PTR [rsp-0x60]
  4046dd:	4c 01 6c 24 a0       	add    QWORD PTR [rsp-0x60],r13
  4046e2:	c5 fa 10 0c 2a       	vmovss xmm1,DWORD PTR [rdx+rbp*1]
  4046e7:	4c 01 ed             	add    rbp,r13
  4046ea:	48 89 ac 24 90 00 00 00 	mov    QWORD PTR [rsp+0x90],rbp
  4046f2:	48 8b ac 24 10 01 00 00 	mov    rbp,QWORD PTR [rsp+0x110]
  4046fa:	4c 01 ed             	add    rbp,r13
  4046fd:	c4 a1 7a 11 0c 1a    	vmovss DWORD PTR [rdx+r11*1],xmm1
  404703:	c4 a1 7a 10 0c 32    	vmovss xmm1,DWORD PTR [rdx+r14*1]
  404709:	4d 01 ee             	add    r14,r13
  40470c:	4c 89 b4 24 d0 00 00 00 	mov    QWORD PTR [rsp+0xd0],r14
  404714:	4c 8b b4 24 58 01 00 00 	mov    r14,QWORD PTR [rsp+0x158]
  40471c:	4d 01 ee             	add    r14,r13
  40471f:	c5 fa 11 0c 02       	vmovss DWORD PTR [rdx+rax*1],xmm1
  404724:	48 8b 44 24 20       	mov    rax,QWORD PTR [rsp+0x20]
  404729:	48 83 44 24 20 10    	add    QWORD PTR [rsp+0x20],0x10
  40472f:	c5 fa 10 0c 0a       	vmovss xmm1,DWORD PTR [rdx+rcx*1]
  404734:	48 8b 4c 24 50       	mov    rcx,QWORD PTR [rsp+0x50]
  404739:	c5 f0 57 c8          	vxorps xmm1,xmm1,xmm0
  40473d:	c4 a1 7a 11 4c 7a 0c 	vmovss DWORD PTR [rdx+r15*2+0xc],xmm1
  404744:	4c 8b bc 24 e0 00 00 00 	mov    r15,QWORD PTR [rsp+0xe0]
  40474c:	c5 fa 10 0c 02       	vmovss xmm1,DWORD PTR [rdx+rax*1]
  404751:	48 8b 84 24 a8 00 00 00 	mov    rax,QWORD PTR [rsp+0xa8]
  404759:	4c 01 ac 24 a8 00 00 00 	add    QWORD PTR [rsp+0xa8],r13
  404761:	c5 f0 57 c8          	vxorps xmm1,xmm1,xmm0
  404765:	c5 fa 11 0c 32       	vmovss DWORD PTR [rdx+rsi*1],xmm1
  40476a:	48 83 c6 10          	add    rsi,0x10
  40476e:	c5 fa 10 0c 02       	vmovss xmm1,DWORD PTR [rdx+rax*1]
  404773:	48 8b 84 24 b0 00 00 00 	mov    rax,QWORD PTR [rsp+0xb0]
  40477b:	48 89 74 24 28       	mov    QWORD PTR [rsp+0x28],rsi
  404780:	48 8b b4 24 28 01 00 00 	mov    rsi,QWORD PTR [rsp+0x128]
  404788:	48 83 c6 10          	add    rsi,0x10
  40478c:	c5 fa 11 0c 02       	vmovss DWORD PTR [rdx+rax*1],xmm1
  404791:	4c 01 e8             	add    rax,r13
  404794:	c4 a1 7a 10 0c 3a    	vmovss xmm1,DWORD PTR [rdx+r15*1]
  40479a:	4d 01 ef             	add    r15,r13
  40479d:	48 89 84 24 b0 00 00 00 	mov    QWORD PTR [rsp+0xb0],rax
  4047a5:	4c 89 bc 24 e0 00 00 00 	mov    QWORD PTR [rsp+0xe0],r15
  4047ad:	4c 8b bc 24 08 01 00 00 	mov    r15,QWORD PTR [rsp+0x108]
  4047b5:	c4 a1 7a 11 0c 12    	vmovss DWORD PTR [rdx+r10*1],xmm1
  4047bb:	4d 01 ea             	add    r10,r13
  4047be:	c5 fa 10 0c 3a       	vmovss xmm1,DWORD PTR [rdx+rdi*1]
  4047c3:	48 8b 7c 24 38       	mov    rdi,QWORD PTR [rsp+0x38]
  4047c8:	4c 89 54 24 a8       	mov    QWORD PTR [rsp-0x58],r10
  4047cd:	4c 8b 94 24 60 01 00 00 	mov    r10,QWORD PTR [rsp+0x160]
  4047d5:	4c 01 6c 24 38       	add    QWORD PTR [rsp+0x38],r13
  4047da:	49 83 c2 10          	add    r10,0x10
  4047de:	c5 f0 57 c8          	vxorps xmm1,xmm1,xmm0
  4047e2:	c4 a1 7a 11 0c 02    	vmovss DWORD PTR [rdx+r8*1],xmm1
  4047e8:	49 83 c0 10          	add    r8,0x10
  4047ec:	c5 fa 10 0c 0a       	vmovss xmm1,DWORD PTR [rdx+rcx*1]
  4047f1:	48 83 c1 10          	add    rcx,0x10
  4047f5:	4c 89 84 24 a0 00 00 00 	mov    QWORD PTR [rsp+0xa0],r8
  4047fd:	48 89 4c 24 50       	mov    QWORD PTR [rsp+0x50],rcx
  404802:	48 8b 8c 24 48 01 00 00 	mov    rcx,QWORD PTR [rsp+0x148]
  40480a:	4c 01 e9             	add    rcx,r13
  40480d:	c5 f0 57 c8          	vxorps xmm1,xmm1,xmm0
  404811:	c4 a1 7a 11 0c 0a    	vmovss DWORD PTR [rdx+r9*1],xmm1
  404817:	49 83 c1 10          	add    r9,0x10
  40481b:	c5 fa 10 0c 3a       	vmovss xmm1,DWORD PTR [rdx+rdi*1]
  404820:	48 8b 7c 24 d8       	mov    rdi,QWORD PTR [rsp-0x28]
  404825:	4c 89 4c 24 70       	mov    QWORD PTR [rsp+0x70],r9
  40482a:	4c 8b 8c 24 50 01 00 00 	mov    r9,QWORD PTR [rsp+0x150]
  404832:	4c 01 6c 24 d8       	add    QWORD PTR [rsp-0x28],r13
  404837:	4d 01 e9             	add    r9,r13
  40483a:	c5 fa 11 0c 3a       	vmovss DWORD PTR [rdx+rdi*1],xmm1
  40483f:	48 8b bc 24 98 00 00 00 	mov    rdi,QWORD PTR [rsp+0x98]
  404847:	4c 01 ac 24 98 00 00 00 	add    QWORD PTR [rsp+0x98],r13
  40484f:	c5 fa 10 0c 3a       	vmovss xmm1,DWORD PTR [rdx+rdi*1]
  404854:	48 8b bc 24 e8 00 00 00 	mov    rdi,QWORD PTR [rsp+0xe8]
  40485c:	4c 01 ac 24 e8 00 00 00 	add    QWORD PTR [rsp+0xe8],r13
  404864:	c5 fa 11 0c 3a       	vmovss DWORD PTR [rdx+rdi*1],xmm1
  404869:	48 8b bc 24 00 01 00 00 	mov    rdi,QWORD PTR [rsp+0x100]
  404871:	4e 8d 1c 27          	lea    r11,[rdi+r12*1]
  404875:	48 8b bc 24 38 01 00 00 	mov    rdi,QWORD PTR [rsp+0x138]
  40487d:	c4 a1 7a 10 0c 9a    	vmovss xmm1,DWORD PTR [rdx+r11*4]
  404883:	4c 8b 9c 24 40 01 00 00 	mov    r11,QWORD PTR [rsp+0x140]
  40488b:	4c 01 ef             	add    rdi,r13
  40488e:	4d 01 eb             	add    r11,r13
  404891:	c5 f0 57 c8          	vxorps xmm1,xmm1,xmm0
  404895:	c5 fa 11 4c 5a 10    	vmovss DWORD PTR [rdx+rbx*2+0x10],xmm1
  40489b:	48 8b 5c 24 d0       	mov    rbx,QWORD PTR [rsp-0x30]
  4048a0:	4c 01 e3             	add    rbx,r12
  4048a3:	4c 03 64 24 90       	add    r12,QWORD PTR [rsp-0x70]
  4048a8:	c5 fa 10 0c 9a       	vmovss xmm1,DWORD PTR [rdx+rbx*4]
  4048ad:	c5 f0 57 c8          	vxorps xmm1,xmm1,xmm0
  4048b1:	c4 a1 7a 11 0c a2    	vmovss DWORD PTR [rdx+r12*4],xmm1
  4048b7:	4c 8b a4 24 30 01 00 00 	mov    r12,QWORD PTR [rsp+0x130]
  4048bf:	49 83 c4 10          	add    r12,0x10
  4048c3:	4c 39 7c 24 88       	cmp    QWORD PTR [rsp-0x78],r15
  4048c8:	0f 85 52 fb ff ff    	jne    404420 <set_bnd+0x6b0>
  4048ce:	4c 8b a4 24 20 01 00 00 	mov    r12,QWORD PTR [rsp+0x120]
  4048d6:	48 8b bc 24 18 01 00 00 	mov    rdi,QWORD PTR [rsp+0x118]
  4048de:	4c 8b 94 24 f8 00 00 00 	mov    r10,QWORD PTR [rsp+0xf8]
  4048e6:	4c 8b 5c 24 c0       	mov    r11,QWORD PTR [rsp-0x40]
  4048eb:	4c 8b 74 24 c8       	mov    r14,QWORD PTR [rsp-0x38]
  4048f0:	4c 8b ac 24 68 01 00 00 	mov    r13,QWORD PTR [rsp+0x168]
  4048f8:	49 8d 47 01          	lea    rax,[r15+0x1]
  4048fc:	4d 85 ed             	test   r13,r13
  4048ff:	0f 85 f3 f4 ff ff    	jne    403df8 <set_bnd+0x88>
  404905:	48 8b 5c 24 98       	mov    rbx,QWORD PTR [rsp-0x68]
  40490a:	4c 8b 44 24 b0       	mov    r8,QWORD PTR [rsp-0x50]
  40490f:	e9 5d 12 00 00       	jmp    405b71 <set_bnd+0x1e01>
  404914:	4d 89 d5             	mov    r13,r10
  404917:	48 83 a4 24 08 01 00 00 f8 	and    QWORD PTR [rsp+0x108],0xfffffffffffffff8
  404920:	45 31 c9             	xor    r9d,r9d
  404923:	41 f6 c2 01          	test   r10b,0x1
  404927:	4c 89 94 24 f8 00 00 00 	mov    QWORD PTR [rsp+0xf8],r10
  40492f:	41 ba 00 00 00 00    	mov    r10d,0x0
  404935:	bd 00 00 00 00       	mov    ebp,0x0
  40493a:	4d 89 f7             	mov    r15,r14
  40493d:	48 89 8c 24 00 01 00 00 	mov    QWORD PTR [rsp+0x100],rcx
  404945:	48 89 bc 24 18 01 00 00 	mov    QWORD PTR [rsp+0x118],rdi
  40494d:	48 89 5c 24 98       	mov    QWORD PTR [rsp-0x68],rbx
  404952:	c4 e2 79 18 05 a1 88 00 00 	vbroadcastss xmm0,DWORD PTR [rip+0x88a1]        # 40d1fc <_IO_stdin_used+0x1fc>
  40495b:	4d 0f 44 d6          	cmove  r10,r14
  40495f:	40 f6 c7 01          	test   dil,0x1
  404963:	49 0f 44 ee          	cmove  rbp,r14
  404967:	41 83 e5 01          	and    r13d,0x1
  40496b:	49 8d 5a 07          	lea    rbx,[r10+0x7]
  40496f:	48 8d 44 3d 00       	lea    rax,[rbp+rdi*1+0x0]
  404974:	41 f7 dd             	neg    r13d
  404977:	49 0f af dc          	imul   rbx,r12
  40497b:	48 89 44 24 80       	mov    QWORD PTR [rsp-0x80],rax
  404980:	89 f8                	mov    eax,edi
  404982:	83 e0 01             	and    eax,0x1
  404985:	45 21 fd             	and    r13d,r15d
  404988:	f7 d8                	neg    eax
  40498a:	44 21 f8             	and    eax,r15d
  40498d:	48 8d 0c 38          	lea    rcx,[rax+rdi*1]
  404991:	48 8d 7d 07          	lea    rdi,[rbp+0x7]
  404995:	49 0f af fc          	imul   rdi,r12
  404999:	48 89 4c 24 88       	mov    QWORD PTR [rsp-0x78],rcx
  40499e:	4c 89 d9             	mov    rcx,r11
  4049a1:	48 8d 0c 8d 00 00 00 00 	lea    rcx,[rcx*4+0x0]
  4049a9:	4d 89 c3             	mov    r11,r8
  4049ac:	48 8d 3c b9          	lea    rdi,[rcx+rdi*4]
  4049b0:	48 89 7c 24 a8       	mov    QWORD PTR [rsp-0x58],rdi
  4049b5:	48 8d 78 06          	lea    rdi,[rax+0x6]
  4049b9:	49 0f af fc          	imul   rdi,r12
  4049bd:	48 8d 3c b9          	lea    rdi,[rcx+rdi*4]
  4049c1:	48 89 7c 24 a0       	mov    QWORD PTR [rsp-0x60],rdi
  4049c6:	48 8d 7d 05          	lea    rdi,[rbp+0x5]
  4049ca:	49 0f af fc          	imul   rdi,r12
  4049ce:	48 8d 34 b9          	lea    rsi,[rcx+rdi*4]
  4049d2:	48 8d 78 04          	lea    rdi,[rax+0x4]
  4049d6:	49 0f af fc          	imul   rdi,r12
  4049da:	48 89 b4 24 f0 00 00 00 	mov    QWORD PTR [rsp+0xf0],rsi
  4049e2:	48 8d 34 b9          	lea    rsi,[rcx+rdi*4]
  4049e6:	48 8d 7d 03          	lea    rdi,[rbp+0x3]
  4049ea:	48 ff c5             	inc    rbp
  4049ed:	49 0f af fc          	imul   rdi,r12
  4049f1:	49 0f af ec          	imul   rbp,r12
  4049f5:	48 89 b4 24 e0 00 00 00 	mov    QWORD PTR [rsp+0xe0],rsi
  4049fd:	48 8d 34 b9          	lea    rsi,[rcx+rdi*4]
  404a01:	48 8d 78 02          	lea    rdi,[rax+0x2]
  404a05:	48 83 c0 08          	add    rax,0x8
  404a09:	49 0f af c4          	imul   rax,r12
  404a0d:	49 0f af fc          	imul   rdi,r12
  404a11:	48 89 b4 24 b8 00 00 00 	mov    QWORD PTR [rsp+0xb8],rsi
  404a19:	48 8d 04 81          	lea    rax,[rcx+rax*4]
  404a1d:	48 8d 34 b9          	lea    rsi,[rcx+rdi*4]
  404a21:	49 8d 7d 06          	lea    rdi,[r13+0x6]
  404a25:	49 0f af fc          	imul   rdi,r12
  404a29:	48 89 84 24 d0 00 00 00 	mov    QWORD PTR [rsp+0xd0],rax
  404a31:	48 8b 44 24 98       	mov    rax,QWORD PTR [rsp-0x68]
  404a36:	48 89 b4 24 98 00 00 00 	mov    QWORD PTR [rsp+0x98],rsi
  404a3e:	48 8d 34 a9          	lea    rsi,[rcx+rbp*4]
  404a42:	4c 89 ed             	mov    rbp,r13
  404a45:	48 89 74 24 30       	mov    QWORD PTR [rsp+0x30],rsi
  404a4a:	48 8d 0c 85 00 00 00 00 	lea    rcx,[rax*4+0x0]
  404a52:	48 8d 34 b9          	lea    rsi,[rcx+rdi*4]
  404a56:	49 8d 7a 05          	lea    rdi,[r10+0x5]
  404a5a:	48 8d 04 99          	lea    rax,[rcx+rbx*4]
  404a5e:	49 0f af fc          	imul   rdi,r12
  404a62:	48 89 84 24 e8 00 00 00 	mov    QWORD PTR [rsp+0xe8],rax
  404a6a:	48 89 b4 24 d8 00 00 00 	mov    QWORD PTR [rsp+0xd8],rsi
  404a72:	4c 89 d6             	mov    rsi,r10
  404a75:	48 8d 04 b9          	lea    rax,[rcx+rdi*4]
  404a79:	49 8d 7d 04          	lea    rdi,[r13+0x4]
  404a7d:	49 0f af fc          	imul   rdi,r12
  404a81:	48 89 84 24 c0 00 00 00 	mov    QWORD PTR [rsp+0xc0],rax
  404a89:	4c 8d 34 b9          	lea    r14,[rcx+rdi*4]
  404a8d:	49 8d 7a 03          	lea    rdi,[r10+0x3]
  404a91:	49 0f af fc          	imul   rdi,r12
  404a95:	48 8d 04 b9          	lea    rax,[rcx+rdi*4]
  404a99:	49 8d 7d 02          	lea    rdi,[r13+0x2]
  404a9d:	4c 8b ac 24 f8 00 00 00 	mov    r13,QWORD PTR [rsp+0xf8]
  404aa5:	49 0f af fc          	imul   rdi,r12
  404aa9:	48 89 84 24 90 00 00 00 	mov    QWORD PTR [rsp+0x90],rax
  404ab1:	4c 8d 14 b9          	lea    r10,[rcx+rdi*4]
  404ab5:	48 8b 7c 24 88       	mov    rdi,QWORD PTR [rsp-0x78]
  404aba:	4e 8d 04 2e          	lea    r8,[rsi+r13*1]
  404abe:	48 ff c6             	inc    rsi
  404ac1:	49 0f af f4          	imul   rsi,r12
  404ac5:	4d 0f af c4          	imul   r8,r12
  404ac9:	48 8d 1c b1          	lea    rbx,[rcx+rsi*4]
  404acd:	4a 8d 74 2d 00       	lea    rsi,[rbp+r13*1+0x0]
  404ad2:	48 83 c5 08          	add    rbp,0x8
  404ad6:	49 0f af fc          	imul   rdi,r12
  404ada:	49 0f af ec          	imul   rbp,r12
  404ade:	49 0f af f4          	imul   rsi,r12
  404ae2:	48 8d 04 a9          	lea    rax,[rcx+rbp*4]
  404ae6:	48 89 74 24 90       	mov    QWORD PTR [rsp-0x70],rsi
  404aeb:	49 8d 77 07          	lea    rsi,[r15+0x7]
  404aef:	4c 89 e1             	mov    rcx,r12
  404af2:	49 0f af cb          	imul   rcx,r11
  404af6:	4d 8d 5f 05          	lea    r11,[r15+0x5]
  404afa:	4c 89 e5             	mov    rbp,r12
  404afd:	48 c1 e5 05          	shl    rbp,0x5
  404b01:	49 0f af f4          	imul   rsi,r12
  404b05:	4d 0f af dc          	imul   r11,r12
  404b09:	48 89 6c 24 e0       	mov    QWORD PTR [rsp-0x20],rbp
  404b0e:	48 89 84 24 a0 00 00 00 	mov    QWORD PTR [rsp+0xa0],rax
  404b16:	49 8d 47 06          	lea    rax,[r15+0x6]
  404b1a:	49 0f af c4          	imul   rax,r12
  404b1e:	48 89 4c 24 d0       	mov    QWORD PTR [rsp-0x30],rcx
  404b23:	4c 89 e1             	mov    rcx,r12
  404b26:	49 0f af cf          	imul   rcx,r15
  404b2a:	48 c1 e6 02          	shl    rsi,0x2
  404b2e:	49 c1 e3 02          	shl    r11,0x2
  404b32:	48 89 b4 24 c8 00 00 00 	mov    QWORD PTR [rsp+0xc8],rsi
  404b3a:	48 8b 74 24 80       	mov    rsi,QWORD PTR [rsp-0x80]
  404b3f:	4c 89 9c 24 a8 00 00 00 	mov    QWORD PTR [rsp+0xa8],r11
  404b47:	4d 89 e3             	mov    r11,r12
  404b4a:	49 c1 e3 04          	shl    r11,0x4
  404b4e:	48 c1 e0 02          	shl    rax,0x2
  404b52:	48 8d 0c 8d 0c 00 00 00 	lea    rcx,[rcx*4+0xc]
  404b5a:	4c 89 5c 24 60       	mov    QWORD PTR [rsp+0x60],r11
  404b5f:	48 89 84 24 b0 00 00 00 	mov    QWORD PTR [rsp+0xb0],rax
  404b67:	49 8d 47 04          	lea    rax,[r15+0x4]
  404b6b:	49 0f af c4          	imul   rax,r12
  404b6f:	48 89 4c 24 78       	mov    QWORD PTR [rsp+0x78],rcx
  404b74:	4b 8d 0c e4          	lea    rcx,[r12+r12*8]
  404b78:	49 0f af f4          	imul   rsi,r12
  404b7c:	4c 8d 2c 49          	lea    r13,[rcx+rcx*2]
  404b80:	48 c1 e0 02          	shl    rax,0x2
  404b84:	48 89 44 24 70       	mov    QWORD PTR [rsp+0x70],rax
  404b89:	49 8d 47 03          	lea    rax,[r15+0x3]
  404b8d:	4d 01 e5             	add    r13,r12
  404b90:	49 0f af c4          	imul   rax,r12
  404b94:	48 89 f1             	mov    rcx,rsi
  404b97:	48 8d 0c b5 0c 00 00 00 	lea    rcx,[rsi*4+0xc]
  404b9f:	4c 8d 1c b5 08 00 00 00 	lea    r11,[rsi*4+0x8]
  404ba7:	48 89 8c 24 88 00 00 00 	mov    QWORD PTR [rsp+0x88],rcx
  404baf:	4c 89 e1             	mov    rcx,r12
  404bb2:	4c 89 9c 24 80 00 00 00 	mov    QWORD PTR [rsp+0x80],r11
  404bba:	49 89 fb             	mov    r11,rdi
  404bbd:	48 89 8c 24 20 01 00 00 	mov    QWORD PTR [rsp+0x120],rcx
  404bc5:	4c 89 5c 24 88       	mov    QWORD PTR [rsp-0x78],r11
  404bca:	48 c1 e0 02          	shl    rax,0x2
  404bce:	48 89 44 24 48       	mov    QWORD PTR [rsp+0x48],rax
  404bd3:	48 8d 04 b5 00 00 00 00 	lea    rax,[rsi*4+0x0]
  404bdb:	48 89 44 24 10       	mov    QWORD PTR [rsp+0x10],rax
  404be0:	48 89 f0             	mov    rax,rsi
  404be3:	48 8d 04 b5 04 00 00 00 	lea    rax,[rsi*4+0x4]
  404beb:	4a 8d 34 85 0c 00 00 00 	lea    rsi,[r8*4+0xc]
  404bf3:	48 89 44 24 50       	mov    QWORD PTR [rsp+0x50],rax
  404bf8:	4a 8d 04 85 00 00 00 00 	lea    rax,[r8*4+0x0]
  404c00:	48 89 74 24 68       	mov    QWORD PTR [rsp+0x68],rsi
  404c05:	4a 8d 34 85 04 00 00 00 	lea    rsi,[r8*4+0x4]
  404c0d:	48 89 44 24 d8       	mov    QWORD PTR [rsp-0x28],rax
  404c12:	4a 8d 04 85 08 00 00 00 	lea    rax,[r8*4+0x8]
  404c1a:	48 89 74 24 28       	mov    QWORD PTR [rsp+0x28],rsi
  404c1f:	4e 8d 04 a5 0c 00 00 00 	lea    r8,[r12*4+0xc]
  404c27:	4a 8d 34 a5 00 00 00 00 	lea    rsi,[r12*4+0x0]
  404c2f:	48 89 44 24 58       	mov    QWORD PTR [rsp+0x58],rax
  404c34:	49 8d 47 02          	lea    rax,[r15+0x2]
  404c38:	4c 89 44 24 20       	mov    QWORD PTR [rsp+0x20],r8
  404c3d:	49 0f af c4          	imul   rax,r12
  404c41:	48 c1 e0 02          	shl    rax,0x2
  404c45:	48 89 44 24 f0       	mov    QWORD PTR [rsp-0x10],rax
  404c4a:	49 8d 47 08          	lea    rax,[r15+0x8]
  404c4e:	4c 8d 3c b6          	lea    r15,[rsi+rsi*4]
  404c52:	49 0f af c4          	imul   rax,r12
  404c56:	48 c1 e0 02          	shl    rax,0x2
  404c5a:	48 89 44 24 40       	mov    QWORD PTR [rsp+0x40],rax
  404c5f:	48 8d 04 bd 0c 00 00 00 	lea    rax,[rdi*4+0xc]
  404c67:	48 89 44 24 38       	mov    QWORD PTR [rsp+0x38],rax
  404c6c:	48 8b 44 24 90       	mov    rax,QWORD PTR [rsp-0x70]
  404c71:	4c 8d 24 85 0c 00 00 00 	lea    r12,[rax*4+0xc]
  404c79:	48 8b 44 24 d0       	mov    rax,QWORD PTR [rsp-0x30]
  404c7e:	4c 8d 04 85 00 00 00 00 	lea    r8,[rax*4+0x0]
  404c86:	48 8d 04 85 0c 00 00 00 	lea    rax,[rax*4+0xc]
  404c8e:	48 89 44 24 80       	mov    QWORD PTR [rsp-0x80],rax
  404c93:	48 8d 04 cd 00 00 00 00 	lea    rax,[rcx*8+0x0]
  404c9b:	4a 8d 0c 9d 08 00 00 00 	lea    rcx,[r11*4+0x8]
  404ca3:	48 89 c7             	mov    rdi,rax
  404ca6:	48 8d 04 40          	lea    rax,[rax+rax*2]
  404caa:	48 89 4c 24 08       	mov    QWORD PTR [rsp+0x8],rcx
  404caf:	48 89 44 24 18       	mov    QWORD PTR [rsp+0x18],rax
  404cb4:	48 8b 44 24 90       	mov    rax,QWORD PTR [rsp-0x70]
  404cb9:	48 8d 0c 85 08 00 00 00 	lea    rcx,[rax*4+0x8]
  404cc1:	48 8d 04 85 04 00 00 00 	lea    rax,[rax*4+0x4]
  404cc9:	48 89 0c 24          	mov    QWORD PTR [rsp],rcx
  404ccd:	48 8d 0c 76          	lea    rcx,[rsi+rsi*2]
  404cd1:	48 89 84 24 10 01 00 00 	mov    QWORD PTR [rsp+0x110],rax
  404cd9:	48 89 4c 24 f8       	mov    QWORD PTR [rsp-0x8],rcx
  404cde:	4c 89 d9             	mov    rcx,r11
  404ce1:	4a 8d 0c 9d 04 00 00 00 	lea    rcx,[r11*4+0x4]
  404ce9:	48 89 4c 24 e8       	mov    QWORD PTR [rsp-0x18],rcx
  404cee:	66 90                	xchg   ax,ax
  404cf0:	c5 fa 10 0c 32       	vmovss xmm1,DWORD PTR [rdx+rsi*1]
  404cf5:	48 8b 4c 24 30       	mov    rcx,QWORD PTR [rsp+0x30]
  404cfa:	4c 89 f8             	mov    rax,r15
  404cfd:	4c 89 bc 24 30 01 00 00 	mov    QWORD PTR [rsp+0x130],r15
  404d05:	4c 8b 7c 24 20       	mov    r15,QWORD PTR [rsp+0x20]
  404d0a:	4c 8b 5c 24 78       	mov    r11,QWORD PTR [rsp+0x78]
  404d0f:	48 89 b4 24 48 01 00 00 	mov    QWORD PTR [rsp+0x148],rsi
  404d17:	48 89 bc 24 38 01 00 00 	mov    QWORD PTR [rsp+0x138],rdi
  404d1f:	4c 89 b4 24 60 01 00 00 	mov    QWORD PTR [rsp+0x160],r14
  404d27:	4c 89 6c 24 b8       	mov    QWORD PTR [rsp-0x48],r13
  404d2c:	48 89 9c 24 50 01 00 00 	mov    QWORD PTR [rsp+0x150],rbx
  404d34:	4c 89 94 24 58 01 00 00 	mov    QWORD PTR [rsp+0x158],r10
  404d3c:	4c 89 a4 24 40 01 00 00 	mov    QWORD PTR [rsp+0x140],r12
  404d44:	4c 89 84 24 28 01 00 00 	mov    QWORD PTR [rsp+0x128],r8
  404d4c:	48 01 6c 24 30       	add    QWORD PTR [rsp+0x30],rbp
  404d51:	c5 f0 57 c8          	vxorps xmm1,xmm1,xmm0
  404d55:	c4 a1 7a 11 0c 02    	vmovss DWORD PTR [rdx+r8*1],xmm1
  404d5b:	4c 8b 84 24 88 00 00 00 	mov    r8,QWORD PTR [rsp+0x88]
  404d63:	c5 fa 10 0c 1a       	vmovss xmm1,DWORD PTR [rdx+rbx*1]
  404d68:	4c 89 cb             	mov    rbx,r9
  404d6b:	c5 f0 57 c8          	vxorps xmm1,xmm1,xmm0
  404d6f:	c5 fa 11 0c 0a       	vmovss DWORD PTR [rdx+rcx*1],xmm1
  404d74:	48 8b 4c 24 d8       	mov    rcx,QWORD PTR [rsp-0x28]
  404d79:	48 83 44 24 d8 10    	add    QWORD PTR [rsp-0x28],0x10
  404d7f:	c4 a1 7a 10 4c 3a f4 	vmovss xmm1,DWORD PTR [rdx+r15*1-0xc]
  404d86:	c4 a1 7a 11 4c 1a f4 	vmovss DWORD PTR [rdx+r11*1-0xc],xmm1
  404d8d:	c5 fa 10 0c 0a       	vmovss xmm1,DWORD PTR [rdx+rcx*1]
  404d92:	48 8b 4c 24 10       	mov    rcx,QWORD PTR [rsp+0x10]
  404d97:	48 83 44 24 10 10    	add    QWORD PTR [rsp+0x10],0x10
  404d9d:	c5 fa 11 0c 0a       	vmovss DWORD PTR [rdx+rcx*1],xmm1
  404da2:	48 8b 4c 24 f0       	mov    rcx,QWORD PTR [rsp-0x10]
  404da7:	48 01 6c 24 f0       	add    QWORD PTR [rsp-0x10],rbp
  404dac:	c5 fa 10 0c 0a       	vmovss xmm1,DWORD PTR [rdx+rcx*1]
  404db1:	48 8b 8c 24 98 00 00 00 	mov    rcx,QWORD PTR [rsp+0x98]
  404db9:	48 01 ac 24 98 00 00 00 	add    QWORD PTR [rsp+0x98],rbp
  404dc1:	c5 f0 57 c8          	vxorps xmm1,xmm1,xmm0
  404dc5:	c5 fa 11 0c 3a       	vmovss DWORD PTR [rdx+rdi*1],xmm1
  404dca:	c4 a1 7a 10 0c 12    	vmovss xmm1,DWORD PTR [rdx+r10*1]
  404dd0:	4c 8b 94 24 e8 00 00 00 	mov    r10,QWORD PTR [rsp+0xe8]
  404dd8:	c5 f0 57 c8          	vxorps xmm1,xmm1,xmm0
  404ddc:	c5 fa 11 0c 0a       	vmovss DWORD PTR [rdx+rcx*1],xmm1
  404de1:	48 8b 4c 24 80       	mov    rcx,QWORD PTR [rsp-0x80]
  404de6:	c5 fa 10 4c 0a f8    	vmovss xmm1,DWORD PTR [rdx+rcx*1-0x8]
  404dec:	48 89 ce             	mov    rsi,rcx
  404def:	48 8b 8c 24 10 01 00 00 	mov    rcx,QWORD PTR [rsp+0x110]
  404df7:	48 89 74 24 80       	mov    QWORD PTR [rsp-0x80],rsi
  404dfc:	48 89 f7             	mov    rdi,rsi
  404dff:	48 83 44 24 80 10    	add    QWORD PTR [rsp-0x80],0x10
  404e05:	48 83 84 24 10 01 00 00 10 	add    QWORD PTR [rsp+0x110],0x10
  404e0e:	c4 a1 7a 11 4c 4a 04 	vmovss DWORD PTR [rdx+r9*2+0x4],xmm1
  404e15:	c5 fa 10 0c 0a       	vmovss xmm1,DWORD PTR [rdx+rcx*1]
  404e1a:	48 8b 4c 24 e8       	mov    rcx,QWORD PTR [rsp-0x18]
  404e1f:	48 83 44 24 e8 10    	add    QWORD PTR [rsp-0x18],0x10
  404e25:	c5 fa 11 0c 0a       	vmovss DWORD PTR [rdx+rcx*1],xmm1
  404e2a:	48 8b 4c 24 f8       	mov    rcx,QWORD PTR [rsp-0x8]
  404e2f:	48 01 6c 24 f8       	add    QWORD PTR [rsp-0x8],rbp
  404e34:	c5 fa 10 0c 0a       	vmovss xmm1,DWORD PTR [rdx+rcx*1]
  404e39:	48 8b 4c 24 48       	mov    rcx,QWORD PTR [rsp+0x48]
  404e3e:	48 01 6c 24 48       	add    QWORD PTR [rsp+0x48],rbp
  404e43:	c5 f0 57 c8          	vxorps xmm1,xmm1,xmm0
  404e47:	c5 fa 11 0c 0a       	vmovss DWORD PTR [rdx+rcx*1],xmm1
  404e4c:	48 8b 8c 24 90 00 00 00 	mov    rcx,QWORD PTR [rsp+0x90]
  404e54:	48 01 ac 24 90 00 00 00 	add    QWORD PTR [rsp+0x90],rbp
  404e5c:	c5 fa 10 0c 0a       	vmovss xmm1,DWORD PTR [rdx+rcx*1]
  404e61:	48 8b 8c 24 b8 00 00 00 	mov    rcx,QWORD PTR [rsp+0xb8]
  404e69:	48 01 ac 24 b8 00 00 00 	add    QWORD PTR [rsp+0xb8],rbp
  404e71:	c5 f0 57 c8          	vxorps xmm1,xmm1,xmm0
  404e75:	c5 fa 11 0c 0a       	vmovss DWORD PTR [rdx+rcx*1],xmm1
  404e7a:	48 8b 4c 24 28       	mov    rcx,QWORD PTR [rsp+0x28]
  404e7f:	48 83 44 24 28 10    	add    QWORD PTR [rsp+0x28],0x10
  404e85:	c4 a1 7a 10 4c 3a f8 	vmovss xmm1,DWORD PTR [rdx+r15*1-0x8]
  404e8c:	c4 a1 7a 11 4c 1a f8 	vmovss DWORD PTR [rdx+r11*1-0x8],xmm1
  404e93:	c5 fa 10 0c 0a       	vmovss xmm1,DWORD PTR [rdx+rcx*1]
  404e98:	48 8b 4c 24 50       	mov    rcx,QWORD PTR [rsp+0x50]
  404e9d:	48 83 44 24 50 10    	add    QWORD PTR [rsp+0x50],0x10
  404ea3:	c5 fa 11 0c 0a       	vmovss DWORD PTR [rdx+rcx*1],xmm1
  404ea8:	48 8b 4c 24 70       	mov    rcx,QWORD PTR [rsp+0x70]
  404ead:	48 01 6c 24 70       	add    QWORD PTR [rsp+0x70],rbp
  404eb2:	c5 fa 10 0c 0a       	vmovss xmm1,DWORD PTR [rdx+rcx*1]
  404eb7:	48 8b 4c 24 60       	mov    rcx,QWORD PTR [rsp+0x60]
  404ebc:	48 01 6c 24 60       	add    QWORD PTR [rsp+0x60],rbp
  404ec1:	c5 f0 57 c8          	vxorps xmm1,xmm1,xmm0
  404ec5:	c5 fa 11 0c 0a       	vmovss DWORD PTR [rdx+rcx*1],xmm1
  404eca:	48 8b 8c 24 e0 00 00 00 	mov    rcx,QWORD PTR [rsp+0xe0]
  404ed2:	48 01 ac 24 e0 00 00 00 	add    QWORD PTR [rsp+0xe0],rbp
  404eda:	c4 a1 7a 10 0c 32    	vmovss xmm1,DWORD PTR [rdx+r14*1]
  404ee0:	4c 8b 74 24 a0       	mov    r14,QWORD PTR [rsp-0x60]
  404ee5:	c5 f0 57 c8          	vxorps xmm1,xmm1,xmm0
  404ee9:	c5 fa 11 0c 0a       	vmovss DWORD PTR [rdx+rcx*1],xmm1
  404eee:	48 8b 4c 24 40       	mov    rcx,QWORD PTR [rsp+0x40]
  404ef3:	48 01 6c 24 40       	add    QWORD PTR [rsp+0x40],rbp
  404ef8:	c5 fa 10 4c 32 fc    	vmovss xmm1,DWORD PTR [rdx+rsi*1-0x4]
  404efe:	48 8b 34 24          	mov    rsi,QWORD PTR [rsp]
  404f02:	48 83 04 24 10       	add    QWORD PTR [rsp],0x10
  404f07:	c4 a1 7a 11 4c 4a 08 	vmovss DWORD PTR [rdx+r9*2+0x8],xmm1
  404f0e:	c5 fa 10 0c 32       	vmovss xmm1,DWORD PTR [rdx+rsi*1]
  404f13:	48 8b 74 24 08       	mov    rsi,QWORD PTR [rsp+0x8]
  404f18:	48 83 44 24 08 10    	add    QWORD PTR [rsp+0x8],0x10
  404f1e:	c5 fa 11 0c 32       	vmovss DWORD PTR [rdx+rsi*1],xmm1
  404f23:	48 8b 74 24 68       	mov    rsi,QWORD PTR [rsp+0x68]
  404f28:	c5 fa 10 0c 02       	vmovss xmm1,DWORD PTR [rdx+rax*1]
  404f2d:	48 8b 84 24 a8 00 00 00 	mov    rax,QWORD PTR [rsp+0xa8]
  404f35:	48 01 ac 24 a8 00 00 00 	add    QWORD PTR [rsp+0xa8],rbp
  404f3d:	c5 f0 57 c8          	vxorps xmm1,xmm1,xmm0
  404f41:	c5 fa 11 0c 02       	vmovss DWORD PTR [rdx+rax*1],xmm1
  404f46:	48 8b 84 24 c0 00 00 00 	mov    rax,QWORD PTR [rsp+0xc0]
  404f4e:	48 01 ac 24 c0 00 00 00 	add    QWORD PTR [rsp+0xc0],rbp
  404f56:	c5 fa 10 0c 02       	vmovss xmm1,DWORD PTR [rdx+rax*1]
  404f5b:	48 8b 84 24 f0 00 00 00 	mov    rax,QWORD PTR [rsp+0xf0]
  404f63:	48 01 ac 24 f0 00 00 00 	add    QWORD PTR [rsp+0xf0],rbp
  404f6b:	c5 f0 57 c8          	vxorps xmm1,xmm1,xmm0
  404f6f:	c5 fa 11 0c 02       	vmovss DWORD PTR [rdx+rax*1],xmm1
  404f74:	48 8b 44 24 58       	mov    rax,QWORD PTR [rsp+0x58]
  404f79:	48 83 44 24 58 10    	add    QWORD PTR [rsp+0x58],0x10
  404f7f:	c4 a1 7a 10 4c 3a fc 	vmovss xmm1,DWORD PTR [rdx+r15*1-0x4]
  404f86:	c4 a1 7a 11 4c 1a fc 	vmovss DWORD PTR [rdx+r11*1-0x4],xmm1
  404f8d:	c5 fa 10 0c 02       	vmovss xmm1,DWORD PTR [rdx+rax*1]
  404f92:	48 8b 84 24 80 00 00 00 	mov    rax,QWORD PTR [rsp+0x80]
  404f9a:	48 83 84 24 80 00 00 00 10 	add    QWORD PTR [rsp+0x80],0x10
  404fa3:	c5 fa 11 0c 02       	vmovss DWORD PTR [rdx+rax*1],xmm1
  404fa8:	48 8b 84 24 b0 00 00 00 	mov    rax,QWORD PTR [rsp+0xb0]
  404fb0:	48 01 ac 24 b0 00 00 00 	add    QWORD PTR [rsp+0xb0],rbp
  404fb8:	c5 fa 10 0c 02       	vmovss xmm1,DWORD PTR [rdx+rax*1]
  404fbd:	48 8b 44 24 18       	mov    rax,QWORD PTR [rsp+0x18]
  404fc2:	48 01 6c 24 18       	add    QWORD PTR [rsp+0x18],rbp
  404fc7:	c5 f0 57 c8          	vxorps xmm1,xmm1,xmm0
  404fcb:	c5 fa 11 0c 02       	vmovss DWORD PTR [rdx+rax*1],xmm1
  404fd0:	48 8b 84 24 d8 00 00 00 	mov    rax,QWORD PTR [rsp+0xd8]
  404fd8:	48 01 ac 24 d8 00 00 00 	add    QWORD PTR [rsp+0xd8],rbp
  404fe0:	c5 fa 10 0c 02       	vmovss xmm1,DWORD PTR [rdx+rax*1]
  404fe5:	48 8b 44 24 b8       	mov    rax,QWORD PTR [rsp-0x48]
  404fea:	c5 f0 57 c8          	vxorps xmm1,xmm1,xmm0
  404fee:	c4 a1 7a 11 0c 32    	vmovss DWORD PTR [rdx+r14*1],xmm1
  404ff4:	49 01 ee             	add    r14,rbp
  404ff7:	c5 fa 10 0c 3a       	vmovss xmm1,DWORD PTR [rdx+rdi*1]
  404ffc:	48 8d 7b 08          	lea    rdi,[rbx+0x8]
  405000:	4c 89 74 24 a0       	mov    QWORD PTR [rsp-0x60],r14
  405005:	4c 8b b4 24 60 01 00 00 	mov    r14,QWORD PTR [rsp+0x160]
  40500d:	49 89 fd             	mov    r13,rdi
  405010:	49 d1 ed             	shr    r13,1
  405013:	49 01 ee             	add    r14,rbp
  405016:	c4 a1 7a 11 4c 4a 0c 	vmovss DWORD PTR [rdx+r9*2+0xc],xmm1
  40501d:	4c 8b 4c 24 38       	mov    r9,QWORD PTR [rsp+0x38]
  405022:	c4 a1 7a 10 0c 22    	vmovss xmm1,DWORD PTR [rdx+r12*1]
  405028:	4c 8b 64 24 a8       	mov    r12,QWORD PTR [rsp-0x58]
  40502d:	c4 a1 7a 11 0c 0a    	vmovss DWORD PTR [rdx+r9*1],xmm1
  405033:	49 83 c1 10          	add    r9,0x10
  405037:	c5 fa 10 0c 02       	vmovss xmm1,DWORD PTR [rdx+rax*1]
  40503c:	48 8b 84 24 c8 00 00 00 	mov    rax,QWORD PTR [rsp+0xc8]
  405044:	4c 89 4c 24 38       	mov    QWORD PTR [rsp+0x38],r9
  405049:	c5 f0 57 c8          	vxorps xmm1,xmm1,xmm0
  40504d:	c5 fa 11 0c 02       	vmovss DWORD PTR [rdx+rax*1],xmm1
  405052:	48 01 e8             	add    rax,rbp
  405055:	c4 a1 7a 10 0c 12    	vmovss xmm1,DWORD PTR [rdx+r10*1]
  40505b:	49 01 ea             	add    r10,rbp
  40505e:	48 89 84 24 c8 00 00 00 	mov    QWORD PTR [rsp+0xc8],rax
  405066:	48 8b 84 24 38 01 00 00 	mov    rax,QWORD PTR [rsp+0x138]
  40506e:	4c 89 94 24 e8 00 00 00 	mov    QWORD PTR [rsp+0xe8],r10
  405076:	4c 8b 94 24 58 01 00 00 	mov    r10,QWORD PTR [rsp+0x158]
  40507e:	48 01 e8             	add    rax,rbp
  405081:	49 01 ea             	add    r10,rbp
  405084:	c5 f0 57 c8          	vxorps xmm1,xmm1,xmm0
  405088:	c4 a1 7a 11 0c 22    	vmovss DWORD PTR [rdx+r12*1],xmm1
  40508e:	49 01 ec             	add    r12,rbp
  405091:	c4 a1 7a 10 0c 3a    	vmovss xmm1,DWORD PTR [rdx+r15*1]
  405097:	4c 89 64 24 a8       	mov    QWORD PTR [rsp-0x58],r12
  40509c:	4c 8b a4 24 40 01 00 00 	mov    r12,QWORD PTR [rsp+0x140]
  4050a4:	49 83 c7 10          	add    r15,0x10
  4050a8:	4c 89 7c 24 20       	mov    QWORD PTR [rsp+0x20],r15
  4050ad:	49 83 c4 10          	add    r12,0x10
  4050b1:	c4 a1 7a 11 0c 1a    	vmovss DWORD PTR [rdx+r11*1],xmm1
  4050b7:	49 83 c3 10          	add    r11,0x10
  4050bb:	c5 fa 10 0c 32       	vmovss xmm1,DWORD PTR [rdx+rsi*1]
  4050c0:	48 83 c6 10          	add    rsi,0x10
  4050c4:	4c 89 5c 24 78       	mov    QWORD PTR [rsp+0x78],r11
  4050c9:	49 89 fb             	mov    r11,rdi
  4050cc:	48 89 c7             	mov    rdi,rax
  4050cf:	4d 89 d9             	mov    r9,r11
  4050d2:	48 89 74 24 68       	mov    QWORD PTR [rsp+0x68],rsi
  4050d7:	48 8b b4 24 48 01 00 00 	mov    rsi,QWORD PTR [rsp+0x148]
  4050df:	48 01 ee             	add    rsi,rbp
  4050e2:	c4 a1 7a 11 0c 02    	vmovss DWORD PTR [rdx+r8*1],xmm1
  4050e8:	49 83 c0 10          	add    r8,0x10
  4050ec:	c5 fa 10 0c 0a       	vmovss xmm1,DWORD PTR [rdx+rcx*1]
  4050f1:	48 8b 4c 24 e0       	mov    rcx,QWORD PTR [rsp-0x20]
  4050f6:	4c 89 84 24 88 00 00 00 	mov    QWORD PTR [rsp+0x88],r8
  4050fe:	4c 8b 84 24 28 01 00 00 	mov    r8,QWORD PTR [rsp+0x128]
  405106:	48 01 6c 24 e0       	add    QWORD PTR [rsp-0x20],rbp
  40510b:	49 01 e8             	add    r8,rbp
  40510e:	c5 f0 57 c8          	vxorps xmm1,xmm1,xmm0
  405112:	c5 fa 11 0c 0a       	vmovss DWORD PTR [rdx+rcx*1],xmm1
  405117:	48 8b 8c 24 a0 00 00 00 	mov    rcx,QWORD PTR [rsp+0xa0]
  40511f:	48 01 ac 24 a0 00 00 00 	add    QWORD PTR [rsp+0xa0],rbp
  405127:	c5 fa 10 0c 0a       	vmovss xmm1,DWORD PTR [rdx+rcx*1]
  40512c:	48 8b 8c 24 d0 00 00 00 	mov    rcx,QWORD PTR [rsp+0xd0]
  405134:	48 01 ac 24 d0 00 00 00 	add    QWORD PTR [rsp+0xd0],rbp
  40513c:	c5 f0 57 c8          	vxorps xmm1,xmm1,xmm0
  405140:	c5 fa 11 0c 0a       	vmovss DWORD PTR [rdx+rcx*1],xmm1
  405145:	48 8b 4c 24 d0       	mov    rcx,QWORD PTR [rsp-0x30]
  40514a:	4c 01 e9             	add    rcx,r13
  40514d:	c5 fa 10 0c 8a       	vmovss xmm1,DWORD PTR [rdx+rcx*4]
  405152:	48 8b 4c 24 90       	mov    rcx,QWORD PTR [rsp-0x70]
  405157:	4c 01 e9             	add    rcx,r13
  40515a:	4c 03 6c 24 88       	add    r13,QWORD PTR [rsp-0x78]
  40515f:	c5 fa 11 4c 5a 10    	vmovss DWORD PTR [rdx+rbx*2+0x10],xmm1
  405165:	48 8b 9c 24 50 01 00 00 	mov    rbx,QWORD PTR [rsp+0x150]
  40516d:	c5 fa 10 0c 8a       	vmovss xmm1,DWORD PTR [rdx+rcx*4]
  405172:	48 8b 8c 24 30 01 00 00 	mov    rcx,QWORD PTR [rsp+0x130]
  40517a:	48 01 eb             	add    rbx,rbp
  40517d:	48 01 e9             	add    rcx,rbp
  405180:	49 89 cf             	mov    r15,rcx
  405183:	c4 a1 7a 11 0c aa    	vmovss DWORD PTR [rdx+r13*4],xmm1
  405189:	4c 8b 6c 24 b8       	mov    r13,QWORD PTR [rsp-0x48]
  40518e:	49 01 ed             	add    r13,rbp
  405191:	4c 39 9c 24 08 01 00 00 	cmp    QWORD PTR [rsp+0x108],r11
  405199:	0f 85 51 fb ff ff    	jne    404cf0 <set_bnd+0xf80>
  40519f:	4c 8b a4 24 20 01 00 00 	mov    r12,QWORD PTR [rsp+0x120]
  4051a7:	48 8b bc 24 18 01 00 00 	mov    rdi,QWORD PTR [rsp+0x118]
  4051af:	4c 8b 94 24 f8 00 00 00 	mov    r10,QWORD PTR [rsp+0xf8]
  4051b7:	4c 8b 5c 24 c0       	mov    r11,QWORD PTR [rsp-0x40]
  4051bc:	48 8b 5c 24 98       	mov    rbx,QWORD PTR [rsp-0x68]
  4051c1:	48 8b 8c 24 00 01 00 00 	mov    rcx,QWORD PTR [rsp+0x100]
  4051c9:	49 8d 41 01          	lea    rax,[r9+0x1]
  4051cd:	48 85 c9             	test   rcx,rcx
  4051d0:	0f 85 67 ed ff ff    	jne    403f3d <set_bnd+0x1cd>
  4051d6:	4c 8b 74 24 c8       	mov    r14,QWORD PTR [rsp-0x38]
  4051db:	4c 8b 44 24 b0       	mov    r8,QWORD PTR [rsp-0x50]
  4051e0:	e9 8c 09 00 00       	jmp    405b71 <set_bnd+0x1e01>
  4051e5:	48 83 64 24 90 f8    	and    QWORD PTR [rsp-0x70],0xfffffffffffffff8
  4051eb:	45 31 ed             	xor    r13d,r13d
  4051ee:	41 f6 c2 01          	test   r10b,0x1
  4051f2:	be 00 00 00 00       	mov    esi,0x0
  4051f7:	bd 00 00 00 00       	mov    ebp,0x0
  4051fc:	48 89 8c 24 68 01 00 00 	mov    QWORD PTR [rsp+0x168],rcx
  405204:	4a 8d 1c 9d 00 00 00 00 	lea    rbx,[r11*4+0x0]
  40520c:	48 89 bc 24 18 01 00 00 	mov    QWORD PTR [rsp+0x118],rdi
  405214:	45 89 d7             	mov    r15d,r10d
  405217:	4c 89 74 24 c8       	mov    QWORD PTR [rsp-0x38],r14
  40521c:	4c 89 44 24 b0       	mov    QWORD PTR [rsp-0x50],r8
  405221:	4c 89 94 24 f8 00 00 00 	mov    QWORD PTR [rsp+0xf8],r10
  405229:	49 0f 44 f6          	cmove  rsi,r14
  40522d:	40 f6 c7 01          	test   dil,0x1
  405231:	49 0f 44 ee          	cmove  rbp,r14
  405235:	41 83 e7 01          	and    r15d,0x1
  405239:	48 8d 44 3d 00       	lea    rax,[rbp+rdi*1+0x0]
  40523e:	41 f7 df             	neg    r15d
  405241:	48 89 44 24 80       	mov    QWORD PTR [rsp-0x80],rax
  405246:	89 f8                	mov    eax,edi
  405248:	83 e0 01             	and    eax,0x1
  40524b:	45 21 f7             	and    r15d,r14d
  40524e:	f7 d8                	neg    eax
  405250:	44 21 f0             	and    eax,r14d
  405253:	4e 8d 34 16          	lea    r14,[rsi+r10*1]
  405257:	48 8d 0c 38          	lea    rcx,[rax+rdi*1]
  40525b:	48 8d 7e 07          	lea    rdi,[rsi+0x7]
  40525f:	48 89 4c 24 88       	mov    QWORD PTR [rsp-0x78],rcx
  405264:	48 8d 4d 07          	lea    rcx,[rbp+0x7]
  405268:	49 0f af fc          	imul   rdi,r12
  40526c:	49 0f af cc          	imul   rcx,r12
  405270:	48 8d 0c 8b          	lea    rcx,[rbx+rcx*4]
  405274:	48 89 8c 24 f0 00 00 00 	mov    QWORD PTR [rsp+0xf0],rcx
  40527c:	48 8d 48 06          	lea    rcx,[rax+0x6]
  405280:	49 0f af cc          	imul   rcx,r12
  405284:	48 8d 0c 8b          	lea    rcx,[rbx+rcx*4]
  405288:	48 89 8c 24 e8 00 00 00 	mov    QWORD PTR [rsp+0xe8],rcx
  405290:	48 8d 4d 05          	lea    rcx,[rbp+0x5]
  405294:	49 0f af cc          	imul   rcx,r12
  405298:	48 8d 0c 8b          	lea    rcx,[rbx+rcx*4]
  40529c:	48 89 8c 24 e0 00 00 00 	mov    QWORD PTR [rsp+0xe0],rcx
  4052a4:	48 8d 48 04          	lea    rcx,[rax+0x4]
  4052a8:	49 0f af cc          	imul   rcx,r12
  4052ac:	48 8d 0c 8b          	lea    rcx,[rbx+rcx*4]
  4052b0:	48 89 8c 24 d0 00 00 00 	mov    QWORD PTR [rsp+0xd0],rcx
  4052b8:	48 8d 4d 03          	lea    rcx,[rbp+0x3]
  4052bc:	48 ff c5             	inc    rbp
  4052bf:	49 0f af cc          	imul   rcx,r12
  4052c3:	49 0f af ec          	imul   rbp,r12
  4052c7:	48 8d 0c 8b          	lea    rcx,[rbx+rcx*4]
  4052cb:	48 8d 2c ab          	lea    rbp,[rbx+rbp*4]
  4052cf:	48 89 8c 24 c0 00 00 00 	mov    QWORD PTR [rsp+0xc0],rcx
  4052d7:	48 8d 48 02          	lea    rcx,[rax+0x2]
  4052db:	48 83 c0 08          	add    rax,0x8
  4052df:	49 0f af c4          	imul   rax,r12
  4052e3:	49 0f af cc          	imul   rcx,r12
  4052e7:	48 8d 04 83          	lea    rax,[rbx+rax*4]
  4052eb:	48 8d 0c 8b          	lea    rcx,[rbx+rcx*4]
  4052ef:	4c 89 e3             	mov    rbx,r12
  4052f2:	4c 0f af f3          	imul   r14,rbx
  4052f6:	48 89 84 24 b0 00 00 00 	mov    QWORD PTR [rsp+0xb0],rax
  4052fe:	48 8b 44 24 98       	mov    rax,QWORD PTR [rsp-0x68]
  405303:	48 89 8c 24 80 00 00 00 	mov    QWORD PTR [rsp+0x80],rcx
  40530b:	48 8d 04 85 00 00 00 00 	lea    rax,[rax*4+0x0]
  405313:	48 8d 0c b8          	lea    rcx,[rax+rdi*4]
  405317:	48 8b 7c 24 80       	mov    rdi,QWORD PTR [rsp-0x80]
  40531c:	48 89 8c 24 d8 00 00 00 	mov    QWORD PTR [rsp+0xd8],rcx
  405324:	49 8d 4f 06          	lea    rcx,[r15+0x6]
  405328:	49 0f af cc          	imul   rcx,r12
  40532c:	48 0f af fb          	imul   rdi,rbx
  405330:	48 8d 0c 88          	lea    rcx,[rax+rcx*4]
  405334:	48 89 8c 24 98 00 00 00 	mov    QWORD PTR [rsp+0x98],rcx
  40533c:	48 8d 4e 05          	lea    rcx,[rsi+0x5]
  405340:	49 0f af cc          	imul   rcx,r12
  405344:	48 8d 0c 88          	lea    rcx,[rax+rcx*4]
  405348:	48 89 8c 24 c8 00 00 00 	mov    QWORD PTR [rsp+0xc8],rcx
  405350:	49 8d 4f 04          	lea    rcx,[r15+0x4]
  405354:	49 0f af cc          	imul   rcx,r12
  405358:	48 8d 0c 88          	lea    rcx,[rax+rcx*4]
  40535c:	48 89 8c 24 88 00 00 00 	mov    QWORD PTR [rsp+0x88],rcx
  405364:	48 8d 4e 03          	lea    rcx,[rsi+0x3]
  405368:	48 ff c6             	inc    rsi
  40536b:	49 0f af cc          	imul   rcx,r12
  40536f:	49 0f af f4          	imul   rsi,r12
  405373:	48 8d 0c 88          	lea    rcx,[rax+rcx*4]
  405377:	4c 8d 0c b0          	lea    r9,[rax+rsi*4]
  40537b:	4b 8d 34 17          	lea    rsi,[r15+r10*1]
  40537f:	49 0f af f4          	imul   rsi,r12
  405383:	48 89 4c 24 78       	mov    QWORD PTR [rsp+0x78],rcx
  405388:	49 8d 4f 02          	lea    rcx,[r15+0x2]
  40538c:	49 83 c7 08          	add    r15,0x8
  405390:	49 0f af cc          	imul   rcx,r12
  405394:	4d 0f af fc          	imul   r15,r12
  405398:	48 89 74 24 d0       	mov    QWORD PTR [rsp-0x30],rsi
  40539d:	48 8d 0c 88          	lea    rcx,[rax+rcx*4]
  4053a1:	4a 8d 04 b8          	lea    rax,[rax+r15*4]
  4053a5:	48 89 84 24 a0 00 00 00 	mov    QWORD PTR [rsp+0xa0],rax
  4053ad:	4c 89 e0             	mov    rax,r12
  4053b0:	49 0f af c0          	imul   rax,r8
  4053b4:	4c 8b 44 24 c8       	mov    r8,QWORD PTR [rsp-0x38]
  4053b9:	48 89 84 24 00 01 00 00 	mov    QWORD PTR [rsp+0x100],rax
  4053c1:	48 8b 44 24 88       	mov    rax,QWORD PTR [rsp-0x78]
  4053c6:	4d 8d 58 03          	lea    r11,[r8+0x3]
  4053ca:	49 8d 70 05          	lea    rsi,[r8+0x5]
  4053ce:	4d 8d 78 06          	lea    r15,[r8+0x6]
  4053d2:	4c 0f af db          	imul   r11,rbx
  4053d6:	48 0f af f3          	imul   rsi,rbx
  4053da:	4c 0f af fb          	imul   r15,rbx
  4053de:	49 0f af c4          	imul   rax,r12
  4053e2:	49 c1 e3 02          	shl    r11,0x2
  4053e6:	48 c1 e6 02          	shl    rsi,0x2
  4053ea:	49 c1 e7 02          	shl    r15,0x2
  4053ee:	4c 89 5c 24 40       	mov    QWORD PTR [rsp+0x40],r11
  4053f3:	4c 8b 5c 24 c8       	mov    r11,QWORD PTR [rsp-0x38]
  4053f8:	48 89 b4 24 90 00 00 00 	mov    QWORD PTR [rsp+0x90],rsi
  405400:	49 8d 70 04          	lea    rsi,[r8+0x4]
  405404:	48 89 44 24 88       	mov    QWORD PTR [rsp-0x78],rax
  405409:	49 8d 40 07          	lea    rax,[r8+0x7]
  40540d:	48 0f af f3          	imul   rsi,rbx
  405411:	49 0f af c4          	imul   rax,r12
  405415:	49 c1 e4 05          	shl    r12,0x5
  405419:	4c 89 64 24 d8       	mov    QWORD PTR [rsp-0x28],r12
  40541e:	48 c1 e6 02          	shl    rsi,0x2
  405422:	48 c1 e0 02          	shl    rax,0x2
  405426:	48 89 74 24 60       	mov    QWORD PTR [rsp+0x60],rsi
  40542b:	48 89 de             	mov    rsi,rbx
  40542e:	48 c1 e6 04          	shl    rsi,0x4
  405432:	48 89 84 24 b8 00 00 00 	mov    QWORD PTR [rsp+0xb8],rax
  40543a:	48 89 d8             	mov    rax,rbx
  40543d:	49 0f af c0          	imul   rax,r8
  405441:	49 89 d8             	mov    r8,rbx
  405444:	48 89 74 24 68       	mov    QWORD PTR [rsp+0x68],rsi
  405449:	48 8d 34 bd 0c 00 00 00 	lea    rsi,[rdi*4+0xc]
  405451:	4c 89 84 24 20 01 00 00 	mov    QWORD PTR [rsp+0x120],r8
  405459:	48 89 74 24 70       	mov    QWORD PTR [rsp+0x70],rsi
  40545e:	48 8d 34 bd 08 00 00 00 	lea    rsi,[rdi*4+0x8]
  405466:	48 8d 04 85 0c 00 00 00 	lea    rax,[rax*4+0xc]
  40546e:	48 89 84 24 a8 00 00 00 	mov    QWORD PTR [rsp+0xa8],rax
  405476:	48 8d 04 db          	lea    rax,[rbx+rbx*8]
  40547a:	4c 8d 14 40          	lea    r10,[rax+rax*2]
  40547e:	48 8d 04 bd 00 00 00 00 	lea    rax,[rdi*4+0x0]
  405486:	48 89 44 24 18       	mov    QWORD PTR [rsp+0x18],rax
  40548b:	48 8d 04 bd 04 00 00 00 	lea    rax,[rdi*4+0x4]
  405493:	49 8d 7b 08          	lea    rdi,[r11+0x8]
  405497:	49 01 da             	add    r10,rbx
  40549a:	4a 8d 1c b5 0c 00 00 00 	lea    rbx,[r14*4+0xc]
  4054a2:	49 0f af f8          	imul   rdi,r8
  4054a6:	48 89 44 24 58       	mov    QWORD PTR [rsp+0x58],rax
  4054ab:	4a 8d 04 b5 00 00 00 00 	lea    rax,[r14*4+0x0]
  4054b3:	48 89 5c 24 50       	mov    QWORD PTR [rsp+0x50],rbx
  4054b8:	4a 8d 1c b5 08 00 00 00 	lea    rbx,[r14*4+0x8]
  4054c0:	48 89 44 24 e0       	mov    QWORD PTR [rsp-0x20],rax
  4054c5:	49 8d 43 02          	lea    rax,[r11+0x2]
  4054c9:	48 89 7c 24 a8       	mov    QWORD PTR [rsp-0x58],rdi
  4054ce:	4e 8d 1c 85 00 00 00 00 	lea    r11,[r8*4+0x0]
  4054d6:	4a 8d 3c 85 0c 00 00 00 	lea    rdi,[r8*4+0xc]
  4054de:	48 89 5c 24 48       	mov    QWORD PTR [rsp+0x48],rbx
  4054e3:	4a 8d 1c b5 04 00 00 00 	lea    rbx,[r14*4+0x4]
  4054eb:	48 c1 64 24 a8 02    	shl    QWORD PTR [rsp-0x58],0x2
  4054f1:	49 0f af c0          	imul   rax,r8
  4054f5:	4c 89 5c 24 a0       	mov    QWORD PTR [rsp-0x60],r11
  4054fa:	4e 8d 1c c5 00 00 00 00 	lea    r11,[r8*8+0x0]
  405502:	48 89 7c 24 20       	mov    QWORD PTR [rsp+0x20],rdi
  405507:	48 8b bc 24 00 01 00 00 	mov    rdi,QWORD PTR [rsp+0x100]
  40550f:	48 c1 e0 02          	shl    rax,0x2
  405513:	4f 8d 04 5b          	lea    r8,[r11+r11*2]
  405517:	4d 89 de             	mov    r14,r11
  40551a:	4c 8b 5c 24 a0       	mov    r11,QWORD PTR [rsp-0x60]
  40551f:	48 89 44 24 28       	mov    QWORD PTR [rsp+0x28],rax
  405524:	48 8b 44 24 88       	mov    rax,QWORD PTR [rsp-0x78]
  405529:	4c 89 44 24 10       	mov    QWORD PTR [rsp+0x10],r8
  40552e:	4c 8b 44 24 d0       	mov    r8,QWORD PTR [rsp-0x30]
  405533:	48 8d 04 85 0c 00 00 00 	lea    rax,[rax*4+0xc]
  40553b:	48 89 44 24 38       	mov    QWORD PTR [rsp+0x38],rax
  405540:	48 8b 44 24 d0       	mov    rax,QWORD PTR [rsp-0x30]
  405545:	48 8d 04 85 0c 00 00 00 	lea    rax,[rax*4+0xc]
  40554d:	48 89 44 24 30       	mov    QWORD PTR [rsp+0x30],rax
  405552:	48 8d 04 bd 00 00 00 00 	lea    rax,[rdi*4+0x0]
  40555a:	48 8d 3c bd 0c 00 00 00 	lea    rdi,[rdi*4+0xc]
  405562:	48 89 7c 24 80       	mov    QWORD PTR [rsp-0x80],rdi
  405567:	4b 8d 3c 9b          	lea    rdi,[r11+r11*4]
  40556b:	48 89 7c 24 08       	mov    QWORD PTR [rsp+0x8],rdi
  405570:	48 8b 7c 24 88       	mov    rdi,QWORD PTR [rsp-0x78]
  405575:	48 8d 3c bd 08 00 00 00 	lea    rdi,[rdi*4+0x8]
  40557d:	48 89 3c 24          	mov    QWORD PTR [rsp],rdi
  405581:	4a 8d 3c 85 08 00 00 00 	lea    rdi,[r8*4+0x8]
  405589:	4e 8d 04 85 04 00 00 00 	lea    r8,[r8*4+0x4]
  405591:	48 89 7c 24 f8       	mov    QWORD PTR [rsp-0x8],rdi
  405596:	4c 89 df             	mov    rdi,r11
  405599:	4b 8d 3c 5b          	lea    rdi,[r11+r11*2]
  40559d:	48 89 7c 24 f0       	mov    QWORD PTR [rsp-0x10],rdi
  4055a2:	48 8b 7c 24 88       	mov    rdi,QWORD PTR [rsp-0x78]
  4055a7:	48 8d 3c bd 04 00 00 00 	lea    rdi,[rdi*4+0x4]
  4055af:	48 89 7c 24 e8       	mov    QWORD PTR [rsp-0x18],rdi
  4055b4:	66 66 66 2e 0f 1f 84 00 00 00 00 00 	data16 data16 cs nop WORD PTR [rax+rax*1+0x0]
  4055c0:	c4 a1 7a 10 04 1a    	vmovss xmm0,DWORD PTR [rdx+r11*1]
  4055c6:	4c 89 5c 24 a0       	mov    QWORD PTR [rsp-0x60],r11
  4055cb:	4c 8b 5c 24 20       	mov    r11,QWORD PTR [rsp+0x20]
  4055d0:	4c 89 54 24 b8       	mov    QWORD PTR [rsp-0x48],r10
  4055d5:	4c 8b 94 24 a8 00 00 00 	mov    r10,QWORD PTR [rsp+0xa8]
  4055dd:	48 89 84 24 40 01 00 00 	mov    QWORD PTR [rsp+0x140],rax
  4055e5:	48 89 8c 24 60 01 00 00 	mov    QWORD PTR [rsp+0x160],rcx
  4055ed:	4c 89 b4 24 30 01 00 00 	mov    QWORD PTR [rsp+0x130],r14
  4055f5:	4c 89 ef             	mov    rdi,r13
  4055f8:	4c 89 ac 24 08 01 00 00 	mov    QWORD PTR [rsp+0x108],r13
  405600:	48 89 9c 24 48 01 00 00 	mov    QWORD PTR [rsp+0x148],rbx
  405608:	48 8b bc 24 d8 00 00 00 	mov    rdi,QWORD PTR [rsp+0xd8]
  405610:	48 89 ac 24 10 01 00 00 	mov    QWORD PTR [rsp+0x110],rbp
  405618:	4c 89 84 24 28 01 00 00 	mov    QWORD PTR [rsp+0x128],r8
  405620:	48 89 b4 24 50 01 00 00 	mov    QWORD PTR [rsp+0x150],rsi
  405628:	4c 89 8c 24 38 01 00 00 	mov    QWORD PTR [rsp+0x138],r9
  405630:	4c 89 bc 24 58 01 00 00 	mov    QWORD PTR [rsp+0x158],r15
  405638:	c5 fa 11 04 02       	vmovss DWORD PTR [rdx+rax*1],xmm0
  40563d:	48 8b 44 24 e0       	mov    rax,QWORD PTR [rsp-0x20]
  405642:	48 83 44 24 e0 10    	add    QWORD PTR [rsp-0x20],0x10
  405648:	c4 a1 7a 10 04 0a    	vmovss xmm0,DWORD PTR [rdx+r9*1]
  40564e:	c5 fa 11 04 2a       	vmovss DWORD PTR [rdx+rbp*1],xmm0
  405653:	48 8b ac 24 f0 00 00 00 	mov    rbp,QWORD PTR [rsp+0xf0]
  40565b:	c4 a1 7a 10 44 1a f4 	vmovss xmm0,DWORD PTR [rdx+r11*1-0xc]
  405662:	c4 a1 7a 11 44 12 f4 	vmovss DWORD PTR [rdx+r10*1-0xc],xmm0
  405669:	c5 fa 10 04 02       	vmovss xmm0,DWORD PTR [rdx+rax*1]
  40566e:	48 8b 44 24 18       	mov    rax,QWORD PTR [rsp+0x18]
  405673:	48 83 44 24 18 10    	add    QWORD PTR [rsp+0x18],0x10
  405679:	c5 fa 11 04 02       	vmovss DWORD PTR [rdx+rax*1],xmm0
  40567e:	48 8b 44 24 28       	mov    rax,QWORD PTR [rsp+0x28]
  405683:	4c 01 64 24 28       	add    QWORD PTR [rsp+0x28],r12
  405688:	c5 fa 10 04 02       	vmovss xmm0,DWORD PTR [rdx+rax*1]
  40568d:	48 8b 84 24 80 00 00 00 	mov    rax,QWORD PTR [rsp+0x80]
  405695:	4c 01 a4 24 80 00 00 00 	add    QWORD PTR [rsp+0x80],r12
  40569d:	c4 a1 7a 11 04 32    	vmovss DWORD PTR [rdx+r14*1],xmm0
  4056a3:	4c 8b b4 24 e8 00 00 00 	mov    r14,QWORD PTR [rsp+0xe8]
  4056ab:	c5 fa 10 04 0a       	vmovss xmm0,DWORD PTR [rdx+rcx*1]
  4056b0:	c5 fa 11 04 02       	vmovss DWORD PTR [rdx+rax*1],xmm0
  4056b5:	48 8b 44 24 80       	mov    rax,QWORD PTR [rsp-0x80]
  4056ba:	c5 fa 10 44 02 f8    	vmovss xmm0,DWORD PTR [rdx+rax*1-0x8]
  4056c0:	48 89 c1             	mov    rcx,rax
  4056c3:	48 8b 44 24 e8       	mov    rax,QWORD PTR [rsp-0x18]
  4056c8:	48 89 4c 24 80       	mov    QWORD PTR [rsp-0x80],rcx
  4056cd:	48 83 44 24 80 10    	add    QWORD PTR [rsp-0x80],0x10
  4056d3:	48 83 44 24 e8 10    	add    QWORD PTR [rsp-0x18],0x10
  4056d9:	c4 a1 7a 11 44 6a 04 	vmovss DWORD PTR [rdx+r13*2+0x4],xmm0
  4056e0:	c4 a1 7a 10 04 02    	vmovss xmm0,DWORD PTR [rdx+r8*1]
  4056e6:	4c 8b 44 24 50       	mov    r8,QWORD PTR [rsp+0x50]
  4056eb:	c5 fa 11 04 02       	vmovss DWORD PTR [rdx+rax*1],xmm0
  4056f0:	48 8b 44 24 f0       	mov    rax,QWORD PTR [rsp-0x10]
  4056f5:	4c 01 64 24 f0       	add    QWORD PTR [rsp-0x10],r12
  4056fa:	c5 fa 10 04 02       	vmovss xmm0,DWORD PTR [rdx+rax*1]
  4056ff:	48 8b 44 24 40       	mov    rax,QWORD PTR [rsp+0x40]
  405704:	4c 01 64 24 40       	add    QWORD PTR [rsp+0x40],r12
  405709:	c5 fa 11 04 02       	vmovss DWORD PTR [rdx+rax*1],xmm0
  40570e:	48 8b 44 24 78       	mov    rax,QWORD PTR [rsp+0x78]
  405713:	4c 01 64 24 78       	add    QWORD PTR [rsp+0x78],r12
  405718:	c5 fa 10 04 02       	vmovss xmm0,DWORD PTR [rdx+rax*1]
  40571d:	48 8b 84 24 c0 00 00 00 	mov    rax,QWORD PTR [rsp+0xc0]
  405725:	4c 01 a4 24 c0 00 00 00 	add    QWORD PTR [rsp+0xc0],r12
  40572d:	c5 fa 11 04 02       	vmovss DWORD PTR [rdx+rax*1],xmm0
  405732:	48 8b 44 24 58       	mov    rax,QWORD PTR [rsp+0x58]
  405737:	48 83 44 24 58 10    	add    QWORD PTR [rsp+0x58],0x10
  40573d:	c4 a1 7a 10 44 1a f8 	vmovss xmm0,DWORD PTR [rdx+r11*1-0x8]
  405744:	c4 a1 7a 11 44 12 f8 	vmovss DWORD PTR [rdx+r10*1-0x8],xmm0
  40574b:	c5 fa 10 04 1a       	vmovss xmm0,DWORD PTR [rdx+rbx*1]
  405750:	48 8b 5c 24 38       	mov    rbx,QWORD PTR [rsp+0x38]
  405755:	c5 fa 11 04 02       	vmovss DWORD PTR [rdx+rax*1],xmm0
  40575a:	48 8b 44 24 60       	mov    rax,QWORD PTR [rsp+0x60]
  40575f:	4c 01 64 24 60       	add    QWORD PTR [rsp+0x60],r12
  405764:	c5 fa 10 04 02       	vmovss xmm0,DWORD PTR [rdx+rax*1]
  405769:	48 8b 44 24 68       	mov    rax,QWORD PTR [rsp+0x68]
  40576e:	4c 01 64 24 68       	add    QWORD PTR [rsp+0x68],r12
  405773:	c5 fa 11 04 02       	vmovss DWORD PTR [rdx+rax*1],xmm0
  405778:	48 8b 84 24 88 00 00 00 	mov    rax,QWORD PTR [rsp+0x88]
  405780:	4c 01 a4 24 88 00 00 00 	add    QWORD PTR [rsp+0x88],r12
  405788:	c5 fa 10 04 02       	vmovss xmm0,DWORD PTR [rdx+rax*1]
  40578d:	48 8b 84 24 d0 00 00 00 	mov    rax,QWORD PTR [rsp+0xd0]
  405795:	4c 01 a4 24 d0 00 00 00 	add    QWORD PTR [rsp+0xd0],r12
  40579d:	c5 fa 11 04 02       	vmovss DWORD PTR [rdx+rax*1],xmm0
  4057a2:	48 8b 44 24 f8       	mov    rax,QWORD PTR [rsp-0x8]
  4057a7:	48 83 44 24 f8 10    	add    QWORD PTR [rsp-0x8],0x10
  4057ad:	c5 fa 10 44 0a fc    	vmovss xmm0,DWORD PTR [rdx+rcx*1-0x4]
  4057b3:	c4 a1 7a 11 44 6a 08 	vmovss DWORD PTR [rdx+r13*2+0x8],xmm0
  4057ba:	c5 fa 10 04 02       	vmovss xmm0,DWORD PTR [rdx+rax*1]
  4057bf:	48 8b 04 24          	mov    rax,QWORD PTR [rsp]
  4057c3:	48 83 04 24 10       	add    QWORD PTR [rsp],0x10
  4057c8:	c5 fa 11 04 02       	vmovss DWORD PTR [rdx+rax*1],xmm0
  4057cd:	48 8b 44 24 08       	mov    rax,QWORD PTR [rsp+0x8]
  4057d2:	4c 01 64 24 08       	add    QWORD PTR [rsp+0x8],r12
  4057d7:	c5 fa 10 04 02       	vmovss xmm0,DWORD PTR [rdx+rax*1]
  4057dc:	48 8b 84 24 90 00 00 00 	mov    rax,QWORD PTR [rsp+0x90]
  4057e4:	4c 01 a4 24 90 00 00 00 	add    QWORD PTR [rsp+0x90],r12
  4057ec:	c5 fa 11 04 02       	vmovss DWORD PTR [rdx+rax*1],xmm0
  4057f1:	48 8b 84 24 c8 00 00 00 	mov    rax,QWORD PTR [rsp+0xc8]
  4057f9:	4c 01 a4 24 c8 00 00 00 	add    QWORD PTR [rsp+0xc8],r12
  405801:	c5 fa 10 04 02       	vmovss xmm0,DWORD PTR [rdx+rax*1]
  405806:	48 8b 84 24 e0 00 00 00 	mov    rax,QWORD PTR [rsp+0xe0]
  40580e:	4c 01 a4 24 e0 00 00 00 	add    QWORD PTR [rsp+0xe0],r12
  405816:	c5 fa 11 04 02       	vmovss DWORD PTR [rdx+rax*1],xmm0
  40581b:	48 8b 44 24 48       	mov    rax,QWORD PTR [rsp+0x48]
  405820:	48 83 44 24 48 10    	add    QWORD PTR [rsp+0x48],0x10
  405826:	c4 a1 7a 10 44 1a fc 	vmovss xmm0,DWORD PTR [rdx+r11*1-0x4]
  40582d:	c4 a1 7a 11 44 12 fc 	vmovss DWORD PTR [rdx+r10*1-0x4],xmm0
  405834:	c5 fa 10 04 02       	vmovss xmm0,DWORD PTR [rdx+rax*1]
  405839:	48 8b 44 24 10       	mov    rax,QWORD PTR [rsp+0x10]
  40583e:	4c 01 64 24 10       	add    QWORD PTR [rsp+0x10],r12
  405843:	c5 fa 11 04 32       	vmovss DWORD PTR [rdx+rsi*1],xmm0
  405848:	48 8b 74 24 70       	mov    rsi,QWORD PTR [rsp+0x70]
  40584d:	c4 a1 7a 10 04 3a    	vmovss xmm0,DWORD PTR [rdx+r15*1]
  405853:	c5 fa 11 04 02       	vmovss DWORD PTR [rdx+rax*1],xmm0
  405858:	48 8b 84 24 98 00 00 00 	mov    rax,QWORD PTR [rsp+0x98]
  405860:	4c 01 a4 24 98 00 00 00 	add    QWORD PTR [rsp+0x98],r12
  405868:	c5 fa 10 04 02       	vmovss xmm0,DWORD PTR [rdx+rax*1]
  40586d:	48 8b 44 24 b8       	mov    rax,QWORD PTR [rsp-0x48]
  405872:	c4 a1 7a 11 04 32    	vmovss DWORD PTR [rdx+r14*1],xmm0
  405878:	4d 01 e6             	add    r14,r12
  40587b:	c5 fa 10 04 0a       	vmovss xmm0,DWORD PTR [rdx+rcx*1]
  405880:	4c 89 e9             	mov    rcx,r13
  405883:	4c 8d 49 08          	lea    r9,[rcx+0x8]
  405887:	48 8b 4c 24 a8       	mov    rcx,QWORD PTR [rsp-0x58]
  40588c:	4c 89 b4 24 e8 00 00 00 	mov    QWORD PTR [rsp+0xe8],r14
  405894:	4c 8b b4 24 30 01 00 00 	mov    r14,QWORD PTR [rsp+0x130]
  40589c:	4c 01 64 24 a8       	add    QWORD PTR [rsp-0x58],r12
  4058a1:	4d 89 cf             	mov    r15,r9
  4058a4:	49 d1 ef             	shr    r15,1
  4058a7:	4d 01 e6             	add    r14,r12
  4058aa:	c4 a1 7a 11 44 6a 0c 	vmovss DWORD PTR [rdx+r13*2+0xc],xmm0
  4058b1:	4c 8b 6c 24 30       	mov    r13,QWORD PTR [rsp+0x30]
  4058b6:	c4 a1 7a 10 04 2a    	vmovss xmm0,DWORD PTR [rdx+r13*1]
  4058bc:	49 83 c5 10          	add    r13,0x10
  4058c0:	4c 89 6c 24 30       	mov    QWORD PTR [rsp+0x30],r13
  4058c5:	4d 89 cd             	mov    r13,r9
  4058c8:	4c 8b 8c 24 38 01 00 00 	mov    r9,QWORD PTR [rsp+0x138]
  4058d0:	4d 01 e1             	add    r9,r12
  4058d3:	c5 fa 11 04 1a       	vmovss DWORD PTR [rdx+rbx*1],xmm0
  4058d8:	48 83 c3 10          	add    rbx,0x10
  4058dc:	c5 fa 10 04 02       	vmovss xmm0,DWORD PTR [rdx+rax*1]
  4058e1:	48 8b 84 24 b8 00 00 00 	mov    rax,QWORD PTR [rsp+0xb8]
  4058e9:	48 89 5c 24 38       	mov    QWORD PTR [rsp+0x38],rbx
  4058ee:	48 8b 9c 24 48 01 00 00 	mov    rbx,QWORD PTR [rsp+0x148]
  4058f6:	48 83 c3 10          	add    rbx,0x10
  4058fa:	c5 fa 11 04 02       	vmovss DWORD PTR [rdx+rax*1],xmm0
  4058ff:	4c 01 e0             	add    rax,r12
  405902:	c5 fa 10 04 3a       	vmovss xmm0,DWORD PTR [rdx+rdi*1]
  405907:	48 89 84 24 b8 00 00 00 	mov    QWORD PTR [rsp+0xb8],rax
  40590f:	48 8b 84 24 40 01 00 00 	mov    rax,QWORD PTR [rsp+0x140]
  405917:	4c 01 e7             	add    rdi,r12
  40591a:	48 89 bc 24 d8 00 00 00 	mov    QWORD PTR [rsp+0xd8],rdi
  405922:	4c 01 e0             	add    rax,r12
  405925:	c5 fa 11 04 2a       	vmovss DWORD PTR [rdx+rbp*1],xmm0
  40592a:	4c 01 e5             	add    rbp,r12
  40592d:	c4 a1 7a 10 04 1a    	vmovss xmm0,DWORD PTR [rdx+r11*1]
  405933:	49 83 c3 10          	add    r11,0x10
  405937:	48 89 ac 24 f0 00 00 00 	mov    QWORD PTR [rsp+0xf0],rbp
  40593f:	48 8b ac 24 10 01 00 00 	mov    rbp,QWORD PTR [rsp+0x110]
  405947:	4c 89 5c 24 20       	mov    QWORD PTR [rsp+0x20],r11
  40594c:	4c 8b 5c 24 a0       	mov    r11,QWORD PTR [rsp-0x60]
  405951:	4c 01 e5             	add    rbp,r12
  405954:	4d 01 e3             	add    r11,r12
  405957:	c4 a1 7a 11 04 12    	vmovss DWORD PTR [rdx+r10*1],xmm0
  40595d:	49 83 c2 10          	add    r10,0x10
  405961:	c4 a1 7a 10 04 02    	vmovss xmm0,DWORD PTR [rdx+r8*1]
  405967:	49 83 c0 10          	add    r8,0x10
  40596b:	4c 89 94 24 a8 00 00 00 	mov    QWORD PTR [rsp+0xa8],r10
  405973:	4c 89 44 24 50       	mov    QWORD PTR [rsp+0x50],r8
  405978:	4c 8b 84 24 28 01 00 00 	mov    r8,QWORD PTR [rsp+0x128]
  405980:	49 83 c0 10          	add    r8,0x10
  405984:	c5 fa 11 04 32       	vmovss DWORD PTR [rdx+rsi*1],xmm0
  405989:	48 83 c6 10          	add    rsi,0x10
  40598d:	c5 fa 10 04 0a       	vmovss xmm0,DWORD PTR [rdx+rcx*1]
  405992:	48 8b 4c 24 d8       	mov    rcx,QWORD PTR [rsp-0x28]
  405997:	48 89 74 24 70       	mov    QWORD PTR [rsp+0x70],rsi
  40599c:	48 8b b4 24 50 01 00 00 	mov    rsi,QWORD PTR [rsp+0x150]
  4059a4:	4c 01 64 24 d8       	add    QWORD PTR [rsp-0x28],r12
  4059a9:	48 83 c6 10          	add    rsi,0x10
  4059ad:	c5 fa 11 04 0a       	vmovss DWORD PTR [rdx+rcx*1],xmm0
  4059b2:	48 8b 8c 24 a0 00 00 00 	mov    rcx,QWORD PTR [rsp+0xa0]
  4059ba:	4c 01 a4 24 a0 00 00 00 	add    QWORD PTR [rsp+0xa0],r12
  4059c2:	c5 fa 10 04 0a       	vmovss xmm0,DWORD PTR [rdx+rcx*1]
  4059c7:	48 8b 8c 24 b0 00 00 00 	mov    rcx,QWORD PTR [rsp+0xb0]
  4059cf:	4c 01 a4 24 b0 00 00 00 	add    QWORD PTR [rsp+0xb0],r12
  4059d7:	c5 fa 11 04 0a       	vmovss DWORD PTR [rdx+rcx*1],xmm0
  4059dc:	48 8b 8c 24 00 01 00 00 	mov    rcx,QWORD PTR [rsp+0x100]
  4059e4:	4c 01 f9             	add    rcx,r15
  4059e7:	c5 fa 10 04 8a       	vmovss xmm0,DWORD PTR [rdx+rcx*4]
  4059ec:	48 8b 8c 24 08 01 00 00 	mov    rcx,QWORD PTR [rsp+0x108]
  4059f4:	c5 fa 11 44 4a 10    	vmovss DWORD PTR [rdx+rcx*2+0x10],xmm0
  4059fa:	48 8b 4c 24 d0       	mov    rcx,QWORD PTR [rsp-0x30]
  4059ff:	4c 01 f9             	add    rcx,r15
  405a02:	4c 03 7c 24 88       	add    r15,QWORD PTR [rsp-0x78]
  405a07:	c5 fa 10 04 8a       	vmovss xmm0,DWORD PTR [rdx+rcx*4]
  405a0c:	48 8b 4c 24 b8       	mov    rcx,QWORD PTR [rsp-0x48]
  405a11:	4c 01 e1             	add    rcx,r12
  405a14:	49 89 ca             	mov    r10,rcx
  405a17:	48 8b 8c 24 60 01 00 00 	mov    rcx,QWORD PTR [rsp+0x160]
  405a1f:	c4 a1 7a 11 04 ba    	vmovss DWORD PTR [rdx+r15*4],xmm0
  405a25:	4c 8b bc 24 58 01 00 00 	mov    r15,QWORD PTR [rsp+0x158]
  405a2d:	4c 01 e1             	add    rcx,r12
  405a30:	4d 01 e7             	add    r15,r12
  405a33:	4c 39 6c 24 90       	cmp    QWORD PTR [rsp-0x70],r13
  405a38:	0f 85 82 fb ff ff    	jne    4055c0 <set_bnd+0x1850>
  405a3e:	4c 8b a4 24 20 01 00 00 	mov    r12,QWORD PTR [rsp+0x120]
  405a46:	48 8b bc 24 18 01 00 00 	mov    rdi,QWORD PTR [rsp+0x118]
  405a4e:	4c 8b 94 24 f8 00 00 00 	mov    r10,QWORD PTR [rsp+0xf8]
  405a56:	4c 8b 5c 24 c0       	mov    r11,QWORD PTR [rsp-0x40]
  405a5b:	4c 8b 74 24 c8       	mov    r14,QWORD PTR [rsp-0x38]
  405a60:	4c 8b 44 24 b0       	mov    r8,QWORD PTR [rsp-0x50]
  405a65:	48 8b 8c 24 68 01 00 00 	mov    rcx,QWORD PTR [rsp+0x168]
  405a6d:	49 8d 45 01          	lea    rax,[r13+0x1]
  405a71:	48 85 c9             	test   rcx,rcx
  405a74:	0f 84 e1 01 00 00    	je     405c5b <set_bnd+0x1eeb>
  405a7a:	66 0f 1f 44 00 00    	nop    WORD PTR [rax+rax*1+0x0]
  405a80:	44 89 ee             	mov    esi,r13d
  405a83:	83 e6 01             	and    esi,0x1
  405a86:	4d 8d 4d 01          	lea    r9,[r13+0x1]
  405a8a:	4d 89 d3             	mov    r11,r10
  405a8d:	bb 01 00 00 00       	mov    ebx,0x1
  405a92:	4d 89 f7             	mov    r15,r14
  405a95:	f7 de                	neg    esi
  405a97:	44 89 cd             	mov    ebp,r9d
  405a9a:	44 31 d5             	xor    ebp,r10d
  405a9d:	41 ba 00 00 00 00    	mov    r10d,0x0
  405aa3:	44 21 f6             	and    esi,r14d
  405aa6:	83 e5 01             	and    ebp,0x1
  405aa9:	48 01 c6             	add    rsi,rax
  405aac:	f7 dd                	neg    ebp
  405aae:	49 0f af f4          	imul   rsi,r12
  405ab2:	44 21 f5             	and    ebp,r14d
  405ab5:	41 f6 c5 01          	test   r13b,0x1
  405ab9:	4d 0f 44 d6          	cmove  r10,r14
  405abd:	c5 fa 10 04 b2       	vmovss xmm0,DWORD PTR [rdx+rsi*4]
  405ac2:	4c 89 c6             	mov    rsi,r8
  405ac5:	48 0f 44 f3          	cmove  rsi,rbx
  405ac9:	49 8d 1c 02          	lea    rbx,[r10+rax*1]
  405acd:	4d 0f af d4          	imul   r10,r12
  405ad1:	49 0f af dc          	imul   rbx,r12
  405ad5:	49 0f af f4          	imul   rsi,r12
  405ad9:	c5 fa 11 04 9a       	vmovss DWORD PTR [rdx+rbx*4],xmm0
  405ade:	48 8d 5c 05 00       	lea    rbx,[rbp+rax*1+0x0]
  405ae3:	4c 01 dd             	add    rbp,r11
  405ae6:	49 0f af dc          	imul   rbx,r12
  405aea:	48 03 5c 24 98       	add    rbx,QWORD PTR [rsp-0x68]
  405aef:	49 0f af ec          	imul   rbp,r12
  405af3:	c5 fa 10 04 9a       	vmovss xmm0,DWORD PTR [rdx+rbx*4]
  405af8:	89 fb                	mov    ebx,edi
  405afa:	44 31 cb             	xor    ebx,r9d
  405afd:	83 e3 01             	and    ebx,0x1
  405b00:	f7 db                	neg    ebx
  405b02:	44 21 f3             	and    ebx,r14d
  405b05:	4d 89 c6             	mov    r14,r8
  405b08:	49 89 c8             	mov    r8,rcx
  405b0b:	48 8d 0c 03          	lea    rcx,[rbx+rax*1]
  405b0f:	48 d1 e8             	shr    rax,1
  405b12:	48 01 fb             	add    rbx,rdi
  405b15:	49 0f af cc          	imul   rcx,r12
  405b19:	48 03 4c 24 c0       	add    rcx,QWORD PTR [rsp-0x40]
  405b1e:	48 01 c6             	add    rsi,rax
  405b21:	49 01 c2             	add    r10,rax
  405b24:	48 01 c5             	add    rbp,rax
  405b27:	49 0f af dc          	imul   rbx,r12
  405b2b:	48 01 c3             	add    rbx,rax
  405b2e:	4c 89 e8             	mov    rax,r13
  405b31:	48 83 c0 02          	add    rax,0x2
  405b35:	4d 89 cd             	mov    r13,r9
  405b38:	c5 fa 11 04 8a       	vmovss DWORD PTR [rdx+rcx*4],xmm0
  405b3d:	4c 89 c1             	mov    rcx,r8
  405b40:	48 ff c9             	dec    rcx
  405b43:	4d 89 f0             	mov    r8,r14
  405b46:	4d 89 fe             	mov    r14,r15
  405b49:	c5 fa 10 04 b2       	vmovss xmm0,DWORD PTR [rdx+rsi*4]
  405b4e:	c4 a1 7a 11 04 92    	vmovss DWORD PTR [rdx+r10*4],xmm0
  405b54:	4d 89 da             	mov    r10,r11
  405b57:	c5 fa 10 04 aa       	vmovss xmm0,DWORD PTR [rdx+rbp*4]
  405b5c:	c5 fa 11 04 9a       	vmovss DWORD PTR [rdx+rbx*4],xmm0
  405b61:	0f 85 19 ff ff ff    	jne    405a80 <set_bnd+0x1d10>
  405b67:	48 8b 5c 24 98       	mov    rbx,QWORD PTR [rsp-0x68]
  405b6c:	4c 8b 5c 24 c0       	mov    r11,QWORD PTR [rsp-0x40]
  405b71:	4d 0f af c4          	imul   r8,r12
  405b75:	4c 89 e0             	mov    rax,r12
  405b78:	49 0f af c6          	imul   rax,r14
  405b7c:	44 89 d1             	mov    ecx,r10d
  405b7f:	c4 a1 7a 10 04 82    	vmovss xmm0,DWORD PTR [rdx+r8*4]
  405b85:	c5 fa 58 0c 82       	vaddss xmm1,xmm0,DWORD PTR [rdx+rax*4]
  405b8a:	c5 fa 10 05 66 76 00 00 	vmovss xmm0,DWORD PTR [rip+0x7666]        # 40d1f8 <_IO_stdin_used+0x1f8>
  405b92:	31 c0                	xor    eax,eax
  405b94:	40 f6 c7 01          	test   dil,0x1
  405b98:	49 0f 44 c6          	cmove  rax,r14
  405b9c:	83 e1 01             	and    ecx,0x1
  405b9f:	f7 d9                	neg    ecx
  405ba1:	48 8d 34 38          	lea    rsi,[rax+rdi*1]
  405ba5:	48 ff c0             	inc    rax
  405ba8:	44 21 f1             	and    ecx,r14d
  405bab:	49 0f af f4          	imul   rsi,r12
  405baf:	49 0f af c4          	imul   rax,r12
  405bb3:	4a 8d 2c 11          	lea    rbp,[rcx+r10*1]
  405bb7:	49 0f af cc          	imul   rcx,r12
  405bbb:	49 0f af ec          	imul   rbp,r12
  405bbf:	4c 01 d8             	add    rax,r11
  405bc2:	48 01 d9             	add    rcx,rbx
  405bc5:	c5 f2 59 c8          	vmulss xmm1,xmm1,xmm0
  405bc9:	c5 fa 11 0a          	vmovss DWORD PTR [rdx],xmm1
  405bcd:	c5 fa 10 0c aa       	vmovss xmm1,DWORD PTR [rdx+rbp*4]
  405bd2:	c5 f2 58 0c b2       	vaddss xmm1,xmm1,DWORD PTR [rdx+rsi*4]
  405bd7:	89 fe                	mov    esi,edi
  405bd9:	83 e6 01             	and    esi,0x1
  405bdc:	f7 de                	neg    esi
  405bde:	44 21 f6             	and    esi,r14d
  405be1:	48 8d 2c 3e          	lea    rbp,[rsi+rdi*1]
  405be5:	49 0f af f4          	imul   rsi,r12
  405be9:	49 0f af ec          	imul   rbp,r12
  405bed:	4c 01 de             	add    rsi,r11
  405bf0:	c5 f2 59 c8          	vmulss xmm1,xmm1,xmm0
  405bf4:	c5 fa 11 0c aa       	vmovss DWORD PTR [rdx+rbp*4],xmm1
  405bf9:	c5 fa 10 0c 82       	vmovss xmm1,DWORD PTR [rdx+rax*4]
  405bfe:	89 f8                	mov    eax,edi
  405c00:	44 31 d0             	xor    eax,r10d
  405c03:	c5 f2 58 0c 8a       	vaddss xmm1,xmm1,DWORD PTR [rdx+rcx*4]
  405c08:	83 e0 01             	and    eax,0x1
  405c0b:	f7 d8                	neg    eax
  405c0d:	44 21 f0             	and    eax,r14d
  405c10:	48 8d 0c 38          	lea    rcx,[rax+rdi*1]
  405c14:	4c 01 d0             	add    rax,r10
  405c17:	49 0f af c4          	imul   rax,r12
  405c1b:	49 0f af cc          	imul   rcx,r12
  405c1f:	4c 0f af e7          	imul   r12,rdi
  405c23:	4c 01 d8             	add    rax,r11
  405c26:	48 01 d9             	add    rcx,rbx
  405c29:	4d 01 dc             	add    r12,r11
  405c2c:	c5 f2 59 c8          	vmulss xmm1,xmm1,xmm0
  405c30:	c5 fa 11 0c b2       	vmovss DWORD PTR [rdx+rsi*4],xmm1
  405c35:	c5 fa 10 0c 82       	vmovss xmm1,DWORD PTR [rdx+rax*4]
  405c3a:	c5 f2 58 0c 8a       	vaddss xmm1,xmm1,DWORD PTR [rdx+rcx*4]
  405c3f:	c5 f2 59 c0          	vmulss xmm0,xmm1,xmm0
  405c43:	c4 a1 7a 11 04 a2    	vmovss DWORD PTR [rdx+r12*4],xmm0
  405c49:	48 81 c4 70 01 00 00 	add    rsp,0x170
  405c50:	5b                   	pop    rbx
  405c51:	41 5c                	pop    r12
  405c53:	41 5d                	pop    r13
  405c55:	41 5e                	pop    r14
  405c57:	41 5f                	pop    r15
  405c59:	5d                   	pop    rbp
  405c5a:	c3                   	ret
  405c5b:	48 8b 5c 24 98       	mov    rbx,QWORD PTR [rsp-0x68]
  405c60:	e9 0c ff ff ff       	jmp    405b71 <set_bnd+0x1e01>
  405c65:	66 66 2e 0f 1f 84 00 00 00 00 00 	data16 cs nop WORD PTR [rax+rax*1+0x0]

0000000000405c70 <vel_step>:
  405c70:	41 57                	push   r15
  405c72:	41 56                	push   r14
  405c74:	41 55                	push   r13
  405c76:	41 54                	push   r12
  405c78:	53                   	push   rbx
  405c79:	48 83 ec 20          	sub    rsp,0x20
  405c7d:	41 89 fd             	mov    r13d,edi
  405c80:	41 8d 45 02          	lea    eax,[r13+0x2]
  405c84:	c5 f8 28 d9          	vmovaps xmm3,xmm1
  405c88:	4d 89 c6             	mov    r14,r8
  405c8b:	49 89 cf             	mov    r15,rcx
  405c8e:	49 89 d4             	mov    r12,rdx
  405c91:	48 89 f3             	mov    rbx,rsi
  405c94:	0f af c0             	imul   eax,eax
  405c97:	85 c0                	test   eax,eax
  405c99:	0f 84 2b 01 00 00    	je     405dca <vel_step+0x15a>
  405c9f:	89 c0                	mov    eax,eax
  405ca1:	49 8d 54 87 fc       	lea    rdx,[r15+rax*4-0x4]
  405ca6:	48 8d 48 ff          	lea    rcx,[rax-0x1]
  405caa:	48 39 da             	cmp    rdx,rbx
  405cad:	72 2c                	jb     405cdb <vel_step+0x6b>
  405caf:	48 8d 54 83 fc       	lea    rdx,[rbx+rax*4-0x4]
  405cb4:	4c 39 fa             	cmp    rdx,r15
  405cb7:	72 22                	jb     405cdb <vel_step+0x6b>
  405cb9:	31 d2                	xor    edx,edx
  405cbb:	0f 1f 44 00 00       	nop    DWORD PTR [rax+rax*1+0x0]
  405cc0:	c4 c1 7a 10 0c 97    	vmovss xmm1,DWORD PTR [r15+rdx*4]
  405cc6:	c4 e2 61 a9 0c 93    	vfmadd213ss xmm1,xmm3,DWORD PTR [rbx+rdx*4]
  405ccc:	c5 fa 11 0c 93       	vmovss DWORD PTR [rbx+rdx*4],xmm1
  405cd1:	48 ff c2             	inc    rdx
  405cd4:	48 39 d0             	cmp    rax,rdx
  405cd7:	75 e7                	jne    405cc0 <vel_step+0x50>
  405cd9:	eb 5e                	jmp    405d39 <vel_step+0xc9>
  405cdb:	ba f8 ff ff ff       	mov    edx,0xfffffff8
  405ce0:	48 21 c2             	and    rdx,rax
  405ce3:	74 2c                	je     405d11 <vel_step+0xa1>
  405ce5:	c4 e2 7d 18 cb       	vbroadcastss ymm1,xmm3
  405cea:	31 f6                	xor    esi,esi
  405cec:	0f 1f 40 00          	nop    DWORD PTR [rax+0x0]
  405cf0:	c4 c1 7c 10 14 b7    	vmovups ymm2,YMMWORD PTR [r15+rsi*4]
  405cf6:	c4 e2 75 a8 14 b3    	vfmadd213ps ymm2,ymm1,YMMWORD PTR [rbx+rsi*4]
  405cfc:	c5 fc 11 14 b3       	vmovups YMMWORD PTR [rbx+rsi*4],ymm2
  405d01:	48 83 c6 08          	add    rsi,0x8
  405d05:	48 39 d6             	cmp    rsi,rdx
  405d08:	72 e6                	jb     405cf0 <vel_step+0x80>
  405d0a:	48 39 c2             	cmp    rdx,rax
  405d0d:	75 11                	jne    405d20 <vel_step+0xb0>
  405d0f:	eb 28                	jmp    405d39 <vel_step+0xc9>
  405d11:	31 d2                	xor    edx,edx
  405d13:	66 66 66 66 2e 0f 1f 84 00 00 00 00 00 	data16 data16 data16 cs nop WORD PTR [rax+rax*1+0x0]
  405d20:	c4 c1 7a 10 0c 97    	vmovss xmm1,DWORD PTR [r15+rdx*4]
  405d26:	c4 e2 61 a9 0c 93    	vfmadd213ss xmm1,xmm3,DWORD PTR [rbx+rdx*4]
  405d2c:	c5 fa 11 0c 93       	vmovss DWORD PTR [rbx+rdx*4],xmm1
  405d31:	48 ff c2             	inc    rdx
  405d34:	48 39 d0             	cmp    rax,rdx
  405d37:	75 e7                	jne    405d20 <vel_step+0xb0>
  405d39:	49 8d 14 8e          	lea    rdx,[r14+rcx*4]
  405d3d:	4c 39 e2             	cmp    rdx,r12
  405d40:	72 2a                	jb     405d6c <vel_step+0xfc>
  405d42:	49 8d 0c 8c          	lea    rcx,[r12+rcx*4]
  405d46:	4c 39 f1             	cmp    rcx,r14
  405d49:	72 21                	jb     405d6c <vel_step+0xfc>
  405d4b:	31 c9                	xor    ecx,ecx
  405d4d:	0f 1f 00             	nop    DWORD PTR [rax]
  405d50:	c4 c1 7a 10 0c 8e    	vmovss xmm1,DWORD PTR [r14+rcx*4]
  405d56:	c4 c2 61 a9 0c 8c    	vfmadd213ss xmm1,xmm3,DWORD PTR [r12+rcx*4]
  405d5c:	c4 c1 7a 11 0c 8c    	vmovss DWORD PTR [r12+rcx*4],xmm1
  405d62:	48 ff c1             	inc    rcx
  405d65:	48 39 c8             	cmp    rax,rcx
  405d68:	75 e6                	jne    405d50 <vel_step+0xe0>
  405d6a:	eb 5e                	jmp    405dca <vel_step+0x15a>
  405d6c:	b9 f8 ff ff ff       	mov    ecx,0xfffffff8
  405d71:	48 21 c1             	and    rcx,rax
  405d74:	74 2c                	je     405da2 <vel_step+0x132>
  405d76:	c4 e2 7d 18 cb       	vbroadcastss ymm1,xmm3
  405d7b:	31 d2                	xor    edx,edx
  405d7d:	0f 1f 00             	nop    DWORD PTR [rax]
  405d80:	c4 c1 7c 10 14 96    	vmovups ymm2,YMMWORD PTR [r14+rdx*4]
  405d86:	c4 c2 75 a8 14 94    	vfmadd213ps ymm2,ymm1,YMMWORD PTR [r12+rdx*4]
  405d8c:	c4 c1 7c 11 14 94    	vmovups YMMWORD PTR [r12+rdx*4],ymm2
  405d92:	48 83 c2 08          	add    rdx,0x8
  405d96:	48 39 ca             	cmp    rdx,rcx
  405d99:	72 e5                	jb     405d80 <vel_step+0x110>
  405d9b:	48 39 c1             	cmp    rcx,rax
  405d9e:	75 10                	jne    405db0 <vel_step+0x140>
  405da0:	eb 28                	jmp    405dca <vel_step+0x15a>
  405da2:	31 c9                	xor    ecx,ecx
  405da4:	66 66 66 2e 0f 1f 84 00 00 00 00 00 	data16 data16 cs nop WORD PTR [rax+rax*1+0x0]
  405db0:	c4 c1 7a 10 0c 8e    	vmovss xmm1,DWORD PTR [r14+rcx*4]
  405db6:	c4 c2 61 a9 0c 8c    	vfmadd213ss xmm1,xmm3,DWORD PTR [r12+rcx*4]
  405dbc:	c4 c1 7a 11 0c 8c    	vmovss DWORD PTR [r12+rcx*4],xmm1
  405dc2:	48 ff c1             	inc    rcx
  405dc5:	48 39 c8             	cmp    rax,rcx
  405dc8:	75 e6                	jne    405db0 <vel_step+0x140>
  405dca:	44 89 e8             	mov    eax,r13d
  405dcd:	c4 e1 da 2a c8       	vcvtsi2ss xmm1,xmm4,rax
  405dd2:	c5 e2 59 c0          	vmulss xmm0,xmm3,xmm0
  405dd6:	be 01 00 00 00       	mov    esi,0x1
  405ddb:	44 89 ef             	mov    edi,r13d
  405dde:	4c 89 fa             	mov    rdx,r15
  405de1:	48 89 d9             	mov    rcx,rbx
  405de4:	c5 f2 59 c9          	vmulss xmm1,xmm1,xmm1
  405de8:	c5 fa 59 c1          	vmulss xmm0,xmm0,xmm1
  405dec:	c5 fa 10 0d 00 74 00 00 	vmovss xmm1,DWORD PTR [rip+0x7400]        # 40d1f4 <_IO_stdin_used+0x1f4>
  405df4:	c4 e2 79 a9 0d 3b 72 00 00 	vfmadd213ss xmm1,xmm0,DWORD PTR [rip+0x723b]        # 40d038 <_IO_stdin_used+0x38>
  405dfd:	c5 fa 11 44 24 08    	vmovss DWORD PTR [rsp+0x8],xmm0
  405e03:	c5 fa 11 4c 24 0c    	vmovss DWORD PTR [rsp+0xc],xmm1
  405e09:	c5 f8 11 5c 24 10    	vmovups XMMWORD PTR [rsp+0x10],xmm3
  405e0f:	c5 f8 77             	vzeroupper
  405e12:	e8 29 c9 ff ff       	call   402740 <lin_solve>
  405e17:	c5 fa 10 44 24 08    	vmovss xmm0,DWORD PTR [rsp+0x8]
  405e1d:	c5 fa 10 4c 24 0c    	vmovss xmm1,DWORD PTR [rsp+0xc]
  405e23:	be 02 00 00 00       	mov    esi,0x2
  405e28:	44 89 ef             	mov    edi,r13d
  405e2b:	4c 89 f2             	mov    rdx,r14
  405e2e:	4c 89 e1             	mov    rcx,r12
  405e31:	e8 0a c9 ff ff       	call   402740 <lin_solve>
